
tfmini-simulation.elf:     file format elf32-littlearm

Sections:
Idx Name          Size      VMA       LMA       File off  Algn
  0 .isr_vector   00000188  08000000  08000000  00001000  2**0
                  CONTENTS, ALLOC, LOAD, READONLY, DATA
  1 .text         000033c4  08000188  08000188  00001188  2**2
                  CONTENTS, ALLOC, LOAD, READONLY, CODE
  2 .rodata       00000020  0800354c  0800354c  0000454c  2**2
                  CONTENTS, ALLOC, LOAD, READONLY, DATA
  3 .ARM.extab    00000000  0800356c  0800356c  00005010  2**0
                  CONTENTS, READONLY
  4 .ARM          00000008  0800356c  0800356c  0000456c  2**2
                  CONTENTS, ALLOC, LOAD, READONLY, DATA
  5 .preinit_array 00000000  08003574  08003574  00005010  2**0
                  CONTENTS, ALLOC, LOAD, DATA
  6 .init_array   00000004  08003574  08003574  00004574  2**2
                  CONTENTS, ALLOC, LOAD, READONLY, DATA
  7 .fini_array   00000004  08003578  08003578  00004578  2**2
                  CONTENTS, ALLOC, LOAD, READONLY, DATA
  8 .data         00000010  20000000  0800357c  00005000  2**2
                  CONTENTS, ALLOC, LOAD, DATA
  9 .ccmram       00000000  10000000  10000000  00005010  2**0
                  CONTENTS
 10 .bss          000001cc  20000010  20000010  00005010  2**2
                  ALLOC
 11 ._user_heap_stack 00000604  200001dc  200001dc  00005010  2**0
                  ALLOC
 12 .ARM.attributes 00000030  00000000  00000000  00005010  2**0
                  CONTENTS, READONLY
 13 .debug_info   00008c8f  00000000  00000000  00005040  2**0
                  CONTENTS, READONLY, DEBUGGING, OCTETS
 14 .debug_abbrev 00001ac8  00000000  00000000  0000dccf  2**0
                  CONTENTS, READONLY, DEBUGGING, OCTETS
 15 .debug_aranges 00000758  00000000  00000000  0000f798  2**3
                  CONTENTS, READONLY, DEBUGGING, OCTETS
 16 .debug_rnglists 00000587  00000000  00000000  0000fef0  2**0
                  CONTENTS, READONLY, DEBUGGING, OCTETS
 17 .debug_macro  000204ed  00000000  00000000  00010477  2**0
                  CONTENTS, READONLY, DEBUGGING, OCTETS
 18 .debug_line   00009d68  00000000  00000000  00030964  2**0
                  CONTENTS, READONLY, DEBUGGING, OCTETS
 19 .debug_str    000c2433  00000000  00000000  0003a6cc  2**0
                  CONTENTS, READONLY, DEBUGGING, OCTETS
 20 .comment      00000043  00000000  00000000  000fcaff  2**0
                  CONTENTS, READONLY
 21 .debug_frame  00001be4  00000000  00000000  000fcb44  2**2
                  CONTENTS, READONLY, DEBUGGING, OCTETS
 22 .debug_line_str 00000061  00000000  00000000  000fe728  2**0
                  CONTENTS, READONLY, DEBUGGING, OCTETS

Disassembly of section .text:

08000188 <__do_global_dtors_aux>:
 8000188:	b510      	push	{r4, lr}
 800018a:	4c05      	ldr	r4, [pc, #20]	@ (80001a0 <__do_global_dtors_aux+0x18>)
 800018c:	7823      	ldrb	r3, [r4, #0]
 800018e:	b933      	cbnz	r3, 800019e <__do_global_dtors_aux+0x16>
 8000190:	4b04      	ldr	r3, [pc, #16]	@ (80001a4 <__do_global_dtors_aux+0x1c>)
 8000192:	b113      	cbz	r3, 800019a <__do_global_dtors_aux+0x12>
 8000194:	4804      	ldr	r0, [pc, #16]	@ (80001a8 <__do_global_dtors_aux+0x20>)
 8000196:	f3af 8000 	nop.w
 800019a:	2301      	movs	r3, #1
 800019c:	7023      	strb	r3, [r4, #0]
 800019e:	bd10      	pop	{r4, pc}
 80001a0:	20000010 	.word	0x20000010
 80001a4:	00000000 	.word	0x00000000
 80001a8:	08003534 	.word	0x08003534

080001ac <frame_dummy>:
 80001ac:	b508      	push	{r3, lr}
 80001ae:	4b03      	ldr	r3, [pc, #12]	@ (80001bc <frame_dummy+0x10>)
 80001b0:	b11b      	cbz	r3, 80001ba <frame_dummy+0xe>
 80001b2:	4903      	ldr	r1, [pc, #12]	@ (80001c0 <frame_dummy+0x14>)
 80001b4:	4803      	ldr	r0, [pc, #12]	@ (80001c4 <frame_dummy+0x18>)
 80001b6:	f3af 8000 	nop.w
 80001ba:	bd08      	pop	{r3, pc}
 80001bc:	00000000 	.word	0x00000000
 80001c0:	20000014 	.word	0x20000014
 80001c4:	08003534 	.word	0x08003534

080001c8 <__aeabi_uldivmod>:
 80001c8:	b953      	cbnz	r3, 80001e0 <__aeabi_uldivmod+0x18>
 80001ca:	b94a      	cbnz	r2, 80001e0 <__aeabi_uldivmod+0x18>
 80001cc:	2900      	cmp	r1, #0
 80001ce:	bf08      	it	eq
 80001d0:	2800      	cmpeq	r0, #0
 80001d2:	bf1c      	itt	ne
 80001d4:	f04f 31ff 	movne.w	r1, #4294967295	@ 0xffffffff
 80001d8:	f04f 30ff 	movne.w	r0, #4294967295	@ 0xffffffff
 80001dc:	f000 b988 	b.w	80004f0 <__aeabi_idiv0>
 80001e0:	f1ad 0c08 	sub.w	ip, sp, #8
 80001e4:	e96d ce04 	strd	ip, lr, [sp, #-16]!
 80001e8:	f000 f806 	bl	80001f8 <__udivmoddi4>
 80001ec:	f8dd e004 	ldr.w	lr, [sp, #4]
 80001f0:	e9dd 2302 	ldrd	r2, r3, [sp, #8]
 80001f4:	b004      	add	sp, #16
 80001f6:	4770      	bx	lr

080001f8 <__udivmoddi4>:
 80001f8:	e92d 47f0 	stmdb	sp!, {r4, r5, r6, r7, r8, r9, sl, lr}
 80001fc:	9d08      	ldr	r5, [sp, #32]
 80001fe:	468e      	mov	lr, r1
 8000200:	4604      	mov	r4, r0
 8000202:	4688      	mov	r8, r1
 8000204:	2b00      	cmp	r3, #0
 8000206:	d14a      	bne.n	800029e <__udivmoddi4+0xa6>
 8000208:	428a      	cmp	r2, r1
 800020a:	4617      	mov	r7, r2
 800020c:	d962      	bls.n	80002d4 <__udivmoddi4+0xdc>
 800020e:	fab2 f682 	clz	r6, r2
 8000212:	b14e      	cbz	r6, 8000228 <__udivmoddi4+0x30>
 8000214:	f1c6 0320 	rsb	r3, r6, #32
 8000218:	fa01 f806 	lsl.w	r8, r1, r6
 800021c:	fa20 f303 	lsr.w	r3, r0, r3
 8000220:	40b7      	lsls	r7, r6
 8000222:	ea43 0808 	orr.w	r8, r3, r8
 8000226:	40b4      	lsls	r4, r6
 8000228:	ea4f 4e17 	mov.w	lr, r7, lsr #16
 800022c:	fa1f fc87 	uxth.w	ip, r7
 8000230:	fbb8 f1fe 	udiv	r1, r8, lr
 8000234:	0c23      	lsrs	r3, r4, #16
 8000236:	fb0e 8811 	mls	r8, lr, r1, r8
 800023a:	ea43 4308 	orr.w	r3, r3, r8, lsl #16
 800023e:	fb01 f20c 	mul.w	r2, r1, ip
 8000242:	429a      	cmp	r2, r3
 8000244:	d909      	bls.n	800025a <__udivmoddi4+0x62>
 8000246:	18fb      	adds	r3, r7, r3
 8000248:	f101 30ff 	add.w	r0, r1, #4294967295	@ 0xffffffff
 800024c:	f080 80ea 	bcs.w	8000424 <__udivmoddi4+0x22c>
 8000250:	429a      	cmp	r2, r3
 8000252:	f240 80e7 	bls.w	8000424 <__udivmoddi4+0x22c>
 8000256:	3902      	subs	r1, #2
 8000258:	443b      	add	r3, r7
 800025a:	1a9a      	subs	r2, r3, r2
 800025c:	b2a3      	uxth	r3, r4
 800025e:	fbb2 f0fe 	udiv	r0, r2, lr
 8000262:	fb0e 2210 	mls	r2, lr, r0, r2
 8000266:	ea43 4302 	orr.w	r3, r3, r2, lsl #16
 800026a:	fb00 fc0c 	mul.w	ip, r0, ip
 800026e:	459c      	cmp	ip, r3
 8000270:	d909      	bls.n	8000286 <__udivmoddi4+0x8e>
 8000272:	18fb      	adds	r3, r7, r3
 8000274:	f100 32ff 	add.w	r2, r0, #4294967295	@ 0xffffffff
 8000278:	f080 80d6 	bcs.w	8000428 <__udivmoddi4+0x230>
 800027c:	459c      	cmp	ip, r3
 800027e:	f240 80d3 	bls.w	8000428 <__udivmoddi4+0x230>
 8000282:	443b      	add	r3, r7
 8000284:	3802      	subs	r0, #2
 8000286:	ea40 4001 	orr.w	r0, r0, r1, lsl #16
 800028a:	eba3 030c 	sub.w	r3, r3, ip
 800028e:	2100      	movs	r1, #0
 8000290:	b11d      	cbz	r5, 800029a <__udivmoddi4+0xa2>
 8000292:	40f3      	lsrs	r3, r6
 8000294:	2200      	movs	r2, #0
 8000296:	e9c5 3200 	strd	r3, r2, [r5]
 800029a:	e8bd 87f0 	ldmia.w	sp!, {r4, r5, r6, r7, r8, r9, sl, pc}
 800029e:	428b      	cmp	r3, r1
 80002a0:	d905      	bls.n	80002ae <__udivmoddi4+0xb6>
 80002a2:	b10d      	cbz	r5, 80002a8 <__udivmoddi4+0xb0>
 80002a4:	e9c5 0100 	strd	r0, r1, [r5]
 80002a8:	2100      	movs	r1, #0
 80002aa:	4608      	mov	r0, r1
 80002ac:	e7f5      	b.n	800029a <__udivmoddi4+0xa2>
 80002ae:	fab3 f183 	clz	r1, r3
 80002b2:	2900      	cmp	r1, #0
 80002b4:	d146      	bne.n	8000344 <__udivmoddi4+0x14c>
 80002b6:	4573      	cmp	r3, lr
 80002b8:	d302      	bcc.n	80002c0 <__udivmoddi4+0xc8>
 80002ba:	4282      	cmp	r2, r0
 80002bc:	f200 8105 	bhi.w	80004ca <__udivmoddi4+0x2d2>
 80002c0:	1a84      	subs	r4, r0, r2
 80002c2:	eb6e 0203 	sbc.w	r2, lr, r3
 80002c6:	2001      	movs	r0, #1
 80002c8:	4690      	mov	r8, r2
 80002ca:	2d00      	cmp	r5, #0
 80002cc:	d0e5      	beq.n	800029a <__udivmoddi4+0xa2>
 80002ce:	e9c5 4800 	strd	r4, r8, [r5]
 80002d2:	e7e2      	b.n	800029a <__udivmoddi4+0xa2>
 80002d4:	2a00      	cmp	r2, #0
 80002d6:	f000 8090 	beq.w	80003fa <__udivmoddi4+0x202>
 80002da:	fab2 f682 	clz	r6, r2
 80002de:	2e00      	cmp	r6, #0
 80002e0:	f040 80a4 	bne.w	800042c <__udivmoddi4+0x234>
 80002e4:	1a8a      	subs	r2, r1, r2
 80002e6:	0c03      	lsrs	r3, r0, #16
 80002e8:	ea4f 4e17 	mov.w	lr, r7, lsr #16
 80002ec:	b280      	uxth	r0, r0
 80002ee:	b2bc      	uxth	r4, r7
 80002f0:	2101      	movs	r1, #1
 80002f2:	fbb2 fcfe 	udiv	ip, r2, lr
 80002f6:	fb0e 221c 	mls	r2, lr, ip, r2
 80002fa:	ea43 4302 	orr.w	r3, r3, r2, lsl #16
 80002fe:	fb04 f20c 	mul.w	r2, r4, ip
 8000302:	429a      	cmp	r2, r3
 8000304:	d907      	bls.n	8000316 <__udivmoddi4+0x11e>
 8000306:	18fb      	adds	r3, r7, r3
 8000308:	f10c 38ff 	add.w	r8, ip, #4294967295	@ 0xffffffff
 800030c:	d202      	bcs.n	8000314 <__udivmoddi4+0x11c>
 800030e:	429a      	cmp	r2, r3
 8000310:	f200 80e0 	bhi.w	80004d4 <__udivmoddi4+0x2dc>
 8000314:	46c4      	mov	ip, r8
 8000316:	1a9b      	subs	r3, r3, r2
 8000318:	fbb3 f2fe 	udiv	r2, r3, lr
 800031c:	fb0e 3312 	mls	r3, lr, r2, r3
 8000320:	ea40 4303 	orr.w	r3, r0, r3, lsl #16
 8000324:	fb02 f404 	mul.w	r4, r2, r4
 8000328:	429c      	cmp	r4, r3
 800032a:	d907      	bls.n	800033c <__udivmoddi4+0x144>
 800032c:	18fb      	adds	r3, r7, r3
 800032e:	f102 30ff 	add.w	r0, r2, #4294967295	@ 0xffffffff
 8000332:	d202      	bcs.n	800033a <__udivmoddi4+0x142>
 8000334:	429c      	cmp	r4, r3
 8000336:	f200 80ca 	bhi.w	80004ce <__udivmoddi4+0x2d6>
 800033a:	4602      	mov	r2, r0
 800033c:	1b1b      	subs	r3, r3, r4
 800033e:	ea42 400c 	orr.w	r0, r2, ip, lsl #16
 8000342:	e7a5      	b.n	8000290 <__udivmoddi4+0x98>
 8000344:	f1c1 0620 	rsb	r6, r1, #32
 8000348:	408b      	lsls	r3, r1
 800034a:	fa22 f706 	lsr.w	r7, r2, r6
 800034e:	431f      	orrs	r7, r3
 8000350:	fa0e f401 	lsl.w	r4, lr, r1
 8000354:	fa20 f306 	lsr.w	r3, r0, r6
 8000358:	fa2e fe06 	lsr.w	lr, lr, r6
 800035c:	ea4f 4917 	mov.w	r9, r7, lsr #16
 8000360:	4323      	orrs	r3, r4
 8000362:	fa00 f801 	lsl.w	r8, r0, r1
 8000366:	fa1f fc87 	uxth.w	ip, r7
 800036a:	fbbe f0f9 	udiv	r0, lr, r9
 800036e:	0c1c      	lsrs	r4, r3, #16
 8000370:	fb09 ee10 	mls	lr, r9, r0, lr
 8000374:	ea44 440e 	orr.w	r4, r4, lr, lsl #16
 8000378:	fb00 fe0c 	mul.w	lr, r0, ip
 800037c:	45a6      	cmp	lr, r4
 800037e:	fa02 f201 	lsl.w	r2, r2, r1
 8000382:	d909      	bls.n	8000398 <__udivmoddi4+0x1a0>
 8000384:	193c      	adds	r4, r7, r4
 8000386:	f100 3aff 	add.w	sl, r0, #4294967295	@ 0xffffffff
 800038a:	f080 809c 	bcs.w	80004c6 <__udivmoddi4+0x2ce>
 800038e:	45a6      	cmp	lr, r4
 8000390:	f240 8099 	bls.w	80004c6 <__udivmoddi4+0x2ce>
 8000394:	3802      	subs	r0, #2
 8000396:	443c      	add	r4, r7
 8000398:	eba4 040e 	sub.w	r4, r4, lr
 800039c:	fa1f fe83 	uxth.w	lr, r3
 80003a0:	fbb4 f3f9 	udiv	r3, r4, r9
 80003a4:	fb09 4413 	mls	r4, r9, r3, r4
 80003a8:	ea4e 4404 	orr.w	r4, lr, r4, lsl #16
 80003ac:	fb03 fc0c 	mul.w	ip, r3, ip
 80003b0:	45a4      	cmp	ip, r4
 80003b2:	d908      	bls.n	80003c6 <__udivmoddi4+0x1ce>
 80003b4:	193c      	adds	r4, r7, r4
 80003b6:	f103 3eff 	add.w	lr, r3, #4294967295	@ 0xffffffff
 80003ba:	f080 8082 	bcs.w	80004c2 <__udivmoddi4+0x2ca>
 80003be:	45a4      	cmp	ip, r4
 80003c0:	d97f      	bls.n	80004c2 <__udivmoddi4+0x2ca>
 80003c2:	3b02      	subs	r3, #2
 80003c4:	443c      	add	r4, r7
 80003c6:	ea43 4000 	orr.w	r0, r3, r0, lsl #16
 80003ca:	eba4 040c 	sub.w	r4, r4, ip
 80003ce:	fba0 ec02 	umull	lr, ip, r0, r2
 80003d2:	4564      	cmp	r4, ip
 80003d4:	4673      	mov	r3, lr
 80003d6:	46e1      	mov	r9, ip
 80003d8:	d362      	bcc.n	80004a0 <__udivmoddi4+0x2a8>
 80003da:	d05f      	beq.n	800049c <__udivmoddi4+0x2a4>
 80003dc:	b15d      	cbz	r5, 80003f6 <__udivmoddi4+0x1fe>
 80003de:	ebb8 0203 	subs.w	r2, r8, r3
 80003e2:	eb64 0409 	sbc.w	r4, r4, r9
 80003e6:	fa04 f606 	lsl.w	r6, r4, r6
 80003ea:	fa22 f301 	lsr.w	r3, r2, r1
 80003ee:	431e      	orrs	r6, r3
 80003f0:	40cc      	lsrs	r4, r1
 80003f2:	e9c5 6400 	strd	r6, r4, [r5]
 80003f6:	2100      	movs	r1, #0
 80003f8:	e74f      	b.n	800029a <__udivmoddi4+0xa2>
 80003fa:	fbb1 fcf2 	udiv	ip, r1, r2
 80003fe:	0c01      	lsrs	r1, r0, #16
 8000400:	ea41 410e 	orr.w	r1, r1, lr, lsl #16
 8000404:	b280      	uxth	r0, r0
 8000406:	ea40 4201 	orr.w	r2, r0, r1, lsl #16
 800040a:	463b      	mov	r3, r7
 800040c:	4638      	mov	r0, r7
 800040e:	463c      	mov	r4, r7
 8000410:	46b8      	mov	r8, r7
 8000412:	46be      	mov	lr, r7
 8000414:	2620      	movs	r6, #32
 8000416:	fbb1 f1f7 	udiv	r1, r1, r7
 800041a:	eba2 0208 	sub.w	r2, r2, r8
 800041e:	ea41 410c 	orr.w	r1, r1, ip, lsl #16
 8000422:	e766      	b.n	80002f2 <__udivmoddi4+0xfa>
 8000424:	4601      	mov	r1, r0
 8000426:	e718      	b.n	800025a <__udivmoddi4+0x62>
 8000428:	4610      	mov	r0, r2
 800042a:	e72c      	b.n	8000286 <__udivmoddi4+0x8e>
 800042c:	f1c6 0220 	rsb	r2, r6, #32
 8000430:	fa2e f302 	lsr.w	r3, lr, r2
 8000434:	40b7      	lsls	r7, r6
 8000436:	40b1      	lsls	r1, r6
 8000438:	fa20 f202 	lsr.w	r2, r0, r2
 800043c:	ea4f 4e17 	mov.w	lr, r7, lsr #16
 8000440:	430a      	orrs	r2, r1
 8000442:	fbb3 f8fe 	udiv	r8, r3, lr
 8000446:	b2bc      	uxth	r4, r7
 8000448:	fb0e 3318 	mls	r3, lr, r8, r3
 800044c:	0c11      	lsrs	r1, r2, #16
 800044e:	ea41 4103 	orr.w	r1, r1, r3, lsl #16
 8000452:	fb08 f904 	mul.w	r9, r8, r4
 8000456:	40b0      	lsls	r0, r6
 8000458:	4589      	cmp	r9, r1
 800045a:	ea4f 4310 	mov.w	r3, r0, lsr #16
 800045e:	b280      	uxth	r0, r0
 8000460:	d93e      	bls.n	80004e0 <__udivmoddi4+0x2e8>
 8000462:	1879      	adds	r1, r7, r1
 8000464:	f108 3cff 	add.w	ip, r8, #4294967295	@ 0xffffffff
 8000468:	d201      	bcs.n	800046e <__udivmoddi4+0x276>
 800046a:	4589      	cmp	r9, r1
 800046c:	d81f      	bhi.n	80004ae <__udivmoddi4+0x2b6>
 800046e:	eba1 0109 	sub.w	r1, r1, r9
 8000472:	fbb1 f9fe 	udiv	r9, r1, lr
 8000476:	fb09 f804 	mul.w	r8, r9, r4
 800047a:	fb0e 1119 	mls	r1, lr, r9, r1
 800047e:	b292      	uxth	r2, r2
 8000480:	ea42 4201 	orr.w	r2, r2, r1, lsl #16
 8000484:	4542      	cmp	r2, r8
 8000486:	d229      	bcs.n	80004dc <__udivmoddi4+0x2e4>
 8000488:	18ba      	adds	r2, r7, r2
 800048a:	f109 31ff 	add.w	r1, r9, #4294967295	@ 0xffffffff
 800048e:	d2c4      	bcs.n	800041a <__udivmoddi4+0x222>
 8000490:	4542      	cmp	r2, r8
 8000492:	d2c2      	bcs.n	800041a <__udivmoddi4+0x222>
 8000494:	f1a9 0102 	sub.w	r1, r9, #2
 8000498:	443a      	add	r2, r7
 800049a:	e7be      	b.n	800041a <__udivmoddi4+0x222>
 800049c:	45f0      	cmp	r8, lr
 800049e:	d29d      	bcs.n	80003dc <__udivmoddi4+0x1e4>
 80004a0:	ebbe 0302 	subs.w	r3, lr, r2
 80004a4:	eb6c 0c07 	sbc.w	ip, ip, r7
 80004a8:	3801      	subs	r0, #1
 80004aa:	46e1      	mov	r9, ip
 80004ac:	e796      	b.n	80003dc <__udivmoddi4+0x1e4>
 80004ae:	eba7 0909 	sub.w	r9, r7, r9
 80004b2:	4449      	add	r1, r9
 80004b4:	f1a8 0c02 	sub.w	ip, r8, #2
 80004b8:	fbb1 f9fe 	udiv	r9, r1, lr
 80004bc:	fb09 f804 	mul.w	r8, r9, r4
 80004c0:	e7db      	b.n	800047a <__udivmoddi4+0x282>
 80004c2:	4673      	mov	r3, lr
 80004c4:	e77f      	b.n	80003c6 <__udivmoddi4+0x1ce>
 80004c6:	4650      	mov	r0, sl
 80004c8:	e766      	b.n	8000398 <__udivmoddi4+0x1a0>
 80004ca:	4608      	mov	r0, r1
 80004cc:	e6fd      	b.n	80002ca <__udivmoddi4+0xd2>
 80004ce:	443b      	add	r3, r7
 80004d0:	3a02      	subs	r2, #2
 80004d2:	e733      	b.n	800033c <__udivmoddi4+0x144>
 80004d4:	f1ac 0c02 	sub.w	ip, ip, #2
 80004d8:	443b      	add	r3, r7
 80004da:	e71c      	b.n	8000316 <__udivmoddi4+0x11e>
 80004dc:	4649      	mov	r1, r9
 80004de:	e79c      	b.n	800041a <__udivmoddi4+0x222>
 80004e0:	eba1 0109 	sub.w	r1, r1, r9
 80004e4:	46c4      	mov	ip, r8
 80004e6:	fbb1 f9fe 	udiv	r9, r1, lr
 80004ea:	fb09 f804 	mul.w	r8, r9, r4
 80004ee:	e7c4      	b.n	800047a <__udivmoddi4+0x282>

080004f0 <__aeabi_idiv0>:
 80004f0:	4770      	bx	lr
 80004f2:	bf00      	nop

080004f4 <crc16_modbus>:

#define POLY_CRC_MOD	0x80050000
#define	LENGTH_CHECK	0x06U

uint16_t crc16_modbus(uint8_t *buf, uint8_t length)
{
 80004f4:	b480      	push	{r7}
 80004f6:	b087      	sub	sp, #28
 80004f8:	af00      	add	r7, sp, #0
 80004fa:	6078      	str	r0, [r7, #4]
 80004fc:	460b      	mov	r3, r1
 80004fe:	70fb      	strb	r3, [r7, #3]
	uint16_t crc = 0xFFFF;
 8000500:	f64f 73ff 	movw	r3, #65535	@ 0xffff
 8000504:	82fb      	strh	r3, [r7, #22]

	    for (uint8_t pos = 0; pos < length; pos++) {
 8000506:	2300      	movs	r3, #0
 8000508:	757b      	strb	r3, [r7, #21]
 800050a:	e02a      	b.n	8000562 <crc16_modbus+0x6e>
	        crc ^= (uint16_t)buf[pos];
 800050c:	7d7b      	ldrb	r3, [r7, #21]
 800050e:	687a      	ldr	r2, [r7, #4]
 8000510:	4413      	add	r3, r2
 8000512:	781b      	ldrb	r3, [r3, #0]
 8000514:	461a      	mov	r2, r3
 8000516:	8afb      	ldrh	r3, [r7, #22]
 8000518:	4053      	eors	r3, r2
 800051a:	82fb      	strh	r3, [r7, #22]

	        for (uint8_t i = 8; i != 0; i--) {
 800051c:	2308      	movs	r3, #8
 800051e:	753b      	strb	r3, [r7, #20]
 8000520:	e019      	b.n	8000556 <crc16_modbus+0x62>
	            if ((crc & 0x0001) != 0) {
 8000522:	8afb      	ldrh	r3, [r7, #22]
 8000524:	f003 0301 	and.w	r3, r3, #1
 8000528:	2b00      	cmp	r3, #0
 800052a:	d00e      	beq.n	800054a <crc16_modbus+0x56>
	                crc >>= 1;
 800052c:	8afb      	ldrh	r3, [r7, #22]
 800052e:	085b      	lsrs	r3, r3, #1
 8000530:	82fb      	strh	r3, [r7, #22]
 8000532:	4b11      	ldr	r3, [pc, #68]	@ (8000578 <crc16_modbus+0x84>)
 8000534:	613b      	str	r3, [r7, #16]
  uint32_t result;

#if ((defined (__ARM_ARCH_7M__      ) && (__ARM_ARCH_7M__      == 1)) || \
     (defined (__ARM_ARCH_7EM__     ) && (__ARM_ARCH_7EM__     == 1)) || \
     (defined (__ARM_ARCH_8M_MAIN__ ) && (__ARM_ARCH_8M_MAIN__ == 1))    )
   __ASM ("rbit %0, %1" : "=r" (result) : "r" (value) );
 8000536:	693b      	ldr	r3, [r7, #16]
 8000538:	fa93 f3a3 	rbit	r3, r3
 800053c:	60fb      	str	r3, [r7, #12]
    result |= value & 1U;
    s--;
  }
  result <<= s;                        /* shift when v's highest bits are zero */
#endif
  return result;
 800053e:	68fb      	ldr	r3, [r7, #12]
	                crc ^= __RBIT(POLY_CRC_MOD);
 8000540:	b29a      	uxth	r2, r3
 8000542:	8afb      	ldrh	r3, [r7, #22]
 8000544:	4053      	eors	r3, r2
 8000546:	82fb      	strh	r3, [r7, #22]
 8000548:	e002      	b.n	8000550 <crc16_modbus+0x5c>
	            } else {
	                crc >>= 1;
 800054a:	8afb      	ldrh	r3, [r7, #22]
 800054c:	085b      	lsrs	r3, r3, #1
 800054e:	82fb      	strh	r3, [r7, #22]
	        for (uint8_t i = 8; i != 0; i--) {
 8000550:	7d3b      	ldrb	r3, [r7, #20]
 8000552:	3b01      	subs	r3, #1
 8000554:	753b      	strb	r3, [r7, #20]
 8000556:	7d3b      	ldrb	r3, [r7, #20]
 8000558:	2b00      	cmp	r3, #0
 800055a:	d1e2      	bne.n	8000522 <crc16_modbus+0x2e>
	    for (uint8_t pos = 0; pos < length; pos++) {
 800055c:	7d7b      	ldrb	r3, [r7, #21]
 800055e:	3301      	adds	r3, #1
 8000560:	757b      	strb	r3, [r7, #21]
 8000562:	7d7a      	ldrb	r2, [r7, #21]
 8000564:	78fb      	ldrb	r3, [r7, #3]
 8000566:	429a      	cmp	r2, r3
 8000568:	d3d0      	bcc.n	800050c <crc16_modbus+0x18>
	            }
	        }
	    }
	    return crc;
 800056a:	8afb      	ldrh	r3, [r7, #22]
}
 800056c:	4618      	mov	r0, r3
 800056e:	371c      	adds	r7, #28
 8000570:	46bd      	mov	sp, r7
 8000572:	f85d 7b04 	ldr.w	r7, [sp], #4
 8000576:	4770      	bx	lr
 8000578:	80050000 	.word	0x80050000

0800057c <crc_check>:
	packet_head[7] = (uint8_t) (crc_ret >> 8);

}

uint8_t crc_check(uint8_t *buf)
{
 800057c:	b580      	push	{r7, lr}
 800057e:	b084      	sub	sp, #16
 8000580:	af00      	add	r7, sp, #0
 8000582:	6078      	str	r0, [r7, #4]
	uint16_t crc_cal = crc16_modbus(buf, LENGTH_CHECK);
 8000584:	2106      	movs	r1, #6
 8000586:	6878      	ldr	r0, [r7, #4]
 8000588:	f7ff ffb4 	bl	80004f4 <crc16_modbus>
 800058c:	4603      	mov	r3, r0
 800058e:	81fb      	strh	r3, [r7, #14]
	uint16_t crc_buf = (uint16_t) buf[6] |
 8000590:	687b      	ldr	r3, [r7, #4]
 8000592:	3306      	adds	r3, #6
 8000594:	781b      	ldrb	r3, [r3, #0]
 8000596:	b21a      	sxth	r2, r3
					   (uint16_t) buf[7] << 8;
 8000598:	687b      	ldr	r3, [r7, #4]
 800059a:	3307      	adds	r3, #7
 800059c:	781b      	ldrb	r3, [r3, #0]
	uint16_t crc_buf = (uint16_t) buf[6] |
 800059e:	b21b      	sxth	r3, r3
 80005a0:	021b      	lsls	r3, r3, #8
 80005a2:	b21b      	sxth	r3, r3
 80005a4:	4313      	orrs	r3, r2
 80005a6:	b21b      	sxth	r3, r3
 80005a8:	81bb      	strh	r3, [r7, #12]

	if (crc_cal == crc_buf) return SUCCESS;
 80005aa:	89fa      	ldrh	r2, [r7, #14]
 80005ac:	89bb      	ldrh	r3, [r7, #12]
 80005ae:	429a      	cmp	r2, r3
 80005b0:	d101      	bne.n	80005b6 <crc_check+0x3a>
 80005b2:	2300      	movs	r3, #0
 80005b4:	e000      	b.n	80005b8 <crc_check+0x3c>
	else return ERROR;
 80005b6:	2301      	movs	r3, #1
}
 80005b8:	4618      	mov	r0, r3
 80005ba:	3710      	adds	r7, #16
 80005bc:	46bd      	mov	sp, r7
 80005be:	bd80      	pop	{r7, pc}

080005c0 <MX_DMA_Init>:

/**
  * Enable DMA controller clock
  */
void MX_DMA_Init(void)
{
 80005c0:	b580      	push	{r7, lr}
 80005c2:	b082      	sub	sp, #8
 80005c4:	af00      	add	r7, sp, #0

  /* DMA controller clock enable */
  __HAL_RCC_DMA2_CLK_ENABLE();
 80005c6:	2300      	movs	r3, #0
 80005c8:	607b      	str	r3, [r7, #4]
 80005ca:	4b0c      	ldr	r3, [pc, #48]	@ (80005fc <MX_DMA_Init+0x3c>)
 80005cc:	6b1b      	ldr	r3, [r3, #48]	@ 0x30
 80005ce:	4a0b      	ldr	r2, [pc, #44]	@ (80005fc <MX_DMA_Init+0x3c>)
 80005d0:	f443 0380 	orr.w	r3, r3, #4194304	@ 0x400000
 80005d4:	6313      	str	r3, [r2, #48]	@ 0x30
 80005d6:	4b09      	ldr	r3, [pc, #36]	@ (80005fc <MX_DMA_Init+0x3c>)
 80005d8:	6b1b      	ldr	r3, [r3, #48]	@ 0x30
 80005da:	f403 0380 	and.w	r3, r3, #4194304	@ 0x400000
 80005de:	607b      	str	r3, [r7, #4]
 80005e0:	687b      	ldr	r3, [r7, #4]

  /* DMA interrupt init */
  /* DMA2_Stream2_IRQn interrupt configuration */
  HAL_NVIC_SetPriority(DMA2_Stream2_IRQn, 0, 0);
 80005e2:	2200      	movs	r2, #0
 80005e4:	2100      	movs	r1, #0
 80005e6:	203a      	movs	r0, #58	@ 0x3a
 80005e8:	f000 fbb5 	bl	8000d56 <HAL_NVIC_SetPriority>
  HAL_NVIC_EnableIRQ(DMA2_Stream2_IRQn);
 80005ec:	203a      	movs	r0, #58	@ 0x3a
 80005ee:	f000 fbce 	bl	8000d8e <HAL_NVIC_EnableIRQ>

}
 80005f2:	bf00      	nop
 80005f4:	3708      	adds	r7, #8
 80005f6:	46bd      	mov	sp, r7
 80005f8:	bd80      	pop	{r7, pc}
 80005fa:	bf00      	nop
 80005fc:	40023800 	.word	0x40023800

08000600 <MX_GPIO_Init>:
        * Output
        * EVENT_OUT
        * EXTI
*/
void MX_GPIO_Init(void)
{
 8000600:	b480      	push	{r7}
 8000602:	b083      	sub	sp, #12
 8000604:	af00      	add	r7, sp, #0

  /* GPIO Ports Clock Enable */
  __HAL_RCC_GPIOH_CLK_ENABLE();
 8000606:	2300      	movs	r3, #0
 8000608:	607b      	str	r3, [r7, #4]
 800060a:	4b10      	ldr	r3, [pc, #64]	@ (800064c <MX_GPIO_Init+0x4c>)
 800060c:	6b1b      	ldr	r3, [r3, #48]	@ 0x30
 800060e:	4a0f      	ldr	r2, [pc, #60]	@ (800064c <MX_GPIO_Init+0x4c>)
 8000610:	f043 0380 	orr.w	r3, r3, #128	@ 0x80
 8000614:	6313      	str	r3, [r2, #48]	@ 0x30
 8000616:	4b0d      	ldr	r3, [pc, #52]	@ (800064c <MX_GPIO_Init+0x4c>)
 8000618:	6b1b      	ldr	r3, [r3, #48]	@ 0x30
 800061a:	f003 0380 	and.w	r3, r3, #128	@ 0x80
 800061e:	607b      	str	r3, [r7, #4]
 8000620:	687b      	ldr	r3, [r7, #4]
  __HAL_RCC_GPIOB_CLK_ENABLE();
 8000622:	2300      	movs	r3, #0
 8000624:	603b      	str	r3, [r7, #0]
 8000626:	4b09      	ldr	r3, [pc, #36]	@ (800064c <MX_GPIO_Init+0x4c>)
 8000628:	6b1b      	ldr	r3, [r3, #48]	@ 0x30
 800062a:	4a08      	ldr	r2, [pc, #32]	@ (800064c <MX_GPIO_Init+0x4c>)
 800062c:	f043 0302 	orr.w	r3, r3, #2
 8000630:	6313      	str	r3, [r2, #48]	@ 0x30
 8000632:	4b06      	ldr	r3, [pc, #24]	@ (800064c <MX_GPIO_Init+0x4c>)
 8000634:	6b1b      	ldr	r3, [r3, #48]	@ 0x30
 8000636:	f003 0302 	and.w	r3, r3, #2
 800063a:	603b      	str	r3, [r7, #0]
 800063c:	683b      	ldr	r3, [r7, #0]

}
 800063e:	bf00      	nop
 8000640:	370c      	adds	r7, #12
 8000642:	46bd      	mov	sp, r7
 8000644:	f85d 7b04 	ldr.w	r7, [sp], #4
 8000648:	4770      	bx	lr
 800064a:	bf00      	nop
 800064c:	40023800 	.word	0x40023800

08000650 <main>:
/**
  * @brief  The application entry point.
  * @retval int
  */
int main(void)
{
 8000650:	b580      	push	{r7, lr}
 8000652:	af00      	add	r7, sp, #0
  /* USER CODE END 1 */

  /* MCU Configuration--------------------------------------------------------*/

  /* Reset of all peripherals, Initializes the Flash interface and the Systick. */
  HAL_Init();
 8000654:	f000 fa32 	bl	8000abc <HAL_Init>
  /* USER CODE BEGIN Init */

  /* USER CODE END Init */

  /* Configure the system clock */
  SystemClock_Config();
 8000658:	f000 f81e 	bl	8000698 <SystemClock_Config>
  /* USER CODE BEGIN SysInit */

  /* USER CODE END SysInit */

  /* Initialize all configured peripherals */
  MX_GPIO_Init();
 800065c:	f7ff ffd0 	bl	8000600 <MX_GPIO_Init>
  MX_DMA_Init();
 8000660:	f7ff ffae 	bl	80005c0 <MX_DMA_Init>
  MX_USART1_UART_Init();
 8000664:	f000 f954 	bl	8000910 <MX_USART1_UART_Init>
  /* USER CODE BEGIN 2 */
  HAL_UARTEx_ReceiveToIdle_DMA(&huart1, uart_rx_buf, UART_SIZE);
 8000668:	f44f 7280 	mov.w	r2, #256	@ 0x100
 800066c:	4907      	ldr	r1, [pc, #28]	@ (800068c <main+0x3c>)
 800066e:	4808      	ldr	r0, [pc, #32]	@ (8000690 <main+0x40>)
 8000670:	f001 fe2e 	bl	80022d0 <HAL_UARTEx_ReceiveToIdle_DMA>
  __HAL_DMA_DISABLE_IT(&hdma_usart1_rx, DMA_IT_HT);
 8000674:	4b07      	ldr	r3, [pc, #28]	@ (8000694 <main+0x44>)
 8000676:	681b      	ldr	r3, [r3, #0]
 8000678:	681a      	ldr	r2, [r3, #0]
 800067a:	4b06      	ldr	r3, [pc, #24]	@ (8000694 <main+0x44>)
 800067c:	681b      	ldr	r3, [r3, #0]
 800067e:	f022 0208 	bic.w	r2, r2, #8
 8000682:	601a      	str	r2, [r3, #0]

  /* Infinite loop */
  /* USER CODE BEGIN WHILE */
  while (1)
  {
	  system_uart_command();
 8000684:	f000 f8ac 	bl	80007e0 <system_uart_command>
 8000688:	e7fc      	b.n	8000684 <main+0x34>
 800068a:	bf00      	nop
 800068c:	2000002c 	.word	0x2000002c
 8000690:	20000130 	.word	0x20000130
 8000694:	20000178 	.word	0x20000178

08000698 <SystemClock_Config>:
/**
  * @brief System Clock Configuration
  * @retval None
  */
void SystemClock_Config(void)
{
 8000698:	b580      	push	{r7, lr}
 800069a:	b094      	sub	sp, #80	@ 0x50
 800069c:	af00      	add	r7, sp, #0
  RCC_OscInitTypeDef RCC_OscInitStruct = {0};
 800069e:	f107 0320 	add.w	r3, r7, #32
 80006a2:	2230      	movs	r2, #48	@ 0x30
 80006a4:	2100      	movs	r1, #0
 80006a6:	4618      	mov	r0, r3
 80006a8:	f002 ff18 	bl	80034dc <memset>
  RCC_ClkInitTypeDef RCC_ClkInitStruct = {0};
 80006ac:	f107 030c 	add.w	r3, r7, #12
 80006b0:	2200      	movs	r2, #0
 80006b2:	601a      	str	r2, [r3, #0]
 80006b4:	605a      	str	r2, [r3, #4]
 80006b6:	609a      	str	r2, [r3, #8]
 80006b8:	60da      	str	r2, [r3, #12]
 80006ba:	611a      	str	r2, [r3, #16]

  /** Configure the main internal regulator output voltage
  */
  __HAL_RCC_PWR_CLK_ENABLE();
 80006bc:	2300      	movs	r3, #0
 80006be:	60bb      	str	r3, [r7, #8]
 80006c0:	4b27      	ldr	r3, [pc, #156]	@ (8000760 <SystemClock_Config+0xc8>)
 80006c2:	6c1b      	ldr	r3, [r3, #64]	@ 0x40
 80006c4:	4a26      	ldr	r2, [pc, #152]	@ (8000760 <SystemClock_Config+0xc8>)
 80006c6:	f043 5380 	orr.w	r3, r3, #268435456	@ 0x10000000
 80006ca:	6413      	str	r3, [r2, #64]	@ 0x40
 80006cc:	4b24      	ldr	r3, [pc, #144]	@ (8000760 <SystemClock_Config+0xc8>)
 80006ce:	6c1b      	ldr	r3, [r3, #64]	@ 0x40
 80006d0:	f003 5380 	and.w	r3, r3, #268435456	@ 0x10000000
 80006d4:	60bb      	str	r3, [r7, #8]
 80006d6:	68bb      	ldr	r3, [r7, #8]
  __HAL_PWR_VOLTAGESCALING_CONFIG(PWR_REGULATOR_VOLTAGE_SCALE1);
 80006d8:	2300      	movs	r3, #0
 80006da:	607b      	str	r3, [r7, #4]
 80006dc:	4b21      	ldr	r3, [pc, #132]	@ (8000764 <SystemClock_Config+0xcc>)
 80006de:	681b      	ldr	r3, [r3, #0]
 80006e0:	4a20      	ldr	r2, [pc, #128]	@ (8000764 <SystemClock_Config+0xcc>)
 80006e2:	f443 4380 	orr.w	r3, r3, #16384	@ 0x4000
 80006e6:	6013      	str	r3, [r2, #0]
 80006e8:	4b1e      	ldr	r3, [pc, #120]	@ (8000764 <SystemClock_Config+0xcc>)
 80006ea:	681b      	ldr	r3, [r3, #0]
 80006ec:	f403 4380 	and.w	r3, r3, #16384	@ 0x4000
 80006f0:	607b      	str	r3, [r7, #4]
 80006f2:	687b      	ldr	r3, [r7, #4]

  /** Initializes the RCC Oscillators according to the specified parameters
  * in the RCC_OscInitTypeDef structure.
  */
  RCC_OscInitStruct.OscillatorType = RCC_OSCILLATORTYPE_HSE;
 80006f4:	2301      	movs	r3, #1
 80006f6:	623b      	str	r3, [r7, #32]
  RCC_OscInitStruct.HSEState = RCC_HSE_ON;
 80006f8:	f44f 3380 	mov.w	r3, #65536	@ 0x10000
 80006fc:	627b      	str	r3, [r7, #36]	@ 0x24
  RCC_OscInitStruct.PLL.PLLState = RCC_PLL_ON;
 80006fe:	2302      	movs	r3, #2
 8000700:	63bb      	str	r3, [r7, #56]	@ 0x38
  RCC_OscInitStruct.PLL.PLLSource = RCC_PLLSOURCE_HSE;
 8000702:	f44f 0380 	mov.w	r3, #4194304	@ 0x400000
 8000706:	63fb      	str	r3, [r7, #60]	@ 0x3c
  RCC_OscInitStruct.PLL.PLLM = 4;
 8000708:	2304      	movs	r3, #4
 800070a:	643b      	str	r3, [r7, #64]	@ 0x40
  RCC_OscInitStruct.PLL.PLLN = 50;
 800070c:	2332      	movs	r3, #50	@ 0x32
 800070e:	647b      	str	r3, [r7, #68]	@ 0x44
  RCC_OscInitStruct.PLL.PLLP = RCC_PLLP_DIV4;
 8000710:	2304      	movs	r3, #4
 8000712:	64bb      	str	r3, [r7, #72]	@ 0x48
  RCC_OscInitStruct.PLL.PLLQ = 7;
 8000714:	2307      	movs	r3, #7
 8000716:	64fb      	str	r3, [r7, #76]	@ 0x4c
  if (HAL_RCC_OscConfig(&RCC_OscInitStruct) != HAL_OK)
 8000718:	f107 0320 	add.w	r3, r7, #32
 800071c:	4618      	mov	r0, r3
 800071e:	f001 f8ef 	bl	8001900 <HAL_RCC_OscConfig>
 8000722:	4603      	mov	r3, r0
 8000724:	2b00      	cmp	r3, #0
 8000726:	d001      	beq.n	800072c <SystemClock_Config+0x94>
  {
    Error_Handler();
 8000728:	f000 f86e 	bl	8000808 <Error_Handler>
  }

  /** Initializes the CPU, AHB and APB buses clocks
  */
  RCC_ClkInitStruct.ClockType = RCC_CLOCKTYPE_HCLK|RCC_CLOCKTYPE_SYSCLK
 800072c:	230f      	movs	r3, #15
 800072e:	60fb      	str	r3, [r7, #12]
                              |RCC_CLOCKTYPE_PCLK1|RCC_CLOCKTYPE_PCLK2;
  RCC_ClkInitStruct.SYSCLKSource = RCC_SYSCLKSOURCE_PLLCLK;
 8000730:	2302      	movs	r3, #2
 8000732:	613b      	str	r3, [r7, #16]
  RCC_ClkInitStruct.AHBCLKDivider = RCC_SYSCLK_DIV1;
 8000734:	2300      	movs	r3, #0
 8000736:	617b      	str	r3, [r7, #20]
  RCC_ClkInitStruct.APB1CLKDivider = RCC_HCLK_DIV1;
 8000738:	2300      	movs	r3, #0
 800073a:	61bb      	str	r3, [r7, #24]
  RCC_ClkInitStruct.APB2CLKDivider = RCC_HCLK_DIV1;
 800073c:	2300      	movs	r3, #0
 800073e:	61fb      	str	r3, [r7, #28]

  if (HAL_RCC_ClockConfig(&RCC_ClkInitStruct, FLASH_LATENCY_0) != HAL_OK)
 8000740:	f107 030c 	add.w	r3, r7, #12
 8000744:	2100      	movs	r1, #0
 8000746:	4618      	mov	r0, r3
 8000748:	f001 fb52 	bl	8001df0 <HAL_RCC_ClockConfig>
 800074c:	4603      	mov	r3, r0
 800074e:	2b00      	cmp	r3, #0
 8000750:	d001      	beq.n	8000756 <SystemClock_Config+0xbe>
  {
    Error_Handler();
 8000752:	f000 f859 	bl	8000808 <Error_Handler>
  }
}
 8000756:	bf00      	nop
 8000758:	3750      	adds	r7, #80	@ 0x50
 800075a:	46bd      	mov	sp, r7
 800075c:	bd80      	pop	{r7, pc}
 800075e:	bf00      	nop
 8000760:	40023800 	.word	0x40023800
 8000764:	40007000 	.word	0x40007000

08000768 <HAL_UARTEx_RxEventCallback>:

/* USER CODE BEGIN 4 */
void HAL_UARTEx_RxEventCallback(UART_HandleTypeDef *huart, uint16_t Size)
{
 8000768:	b580      	push	{r7, lr}
 800076a:	b082      	sub	sp, #8
 800076c:	af00      	add	r7, sp, #0
 800076e:	6078      	str	r0, [r7, #4]
 8000770:	460b      	mov	r3, r1
 8000772:	807b      	strh	r3, [r7, #2]
    if (huart->Instance == USART1)
 8000774:	687b      	ldr	r3, [r7, #4]
 8000776:	681b      	ldr	r3, [r3, #0]
 8000778:	4a13      	ldr	r2, [pc, #76]	@ (80007c8 <HAL_UARTEx_RxEventCallback+0x60>)
 800077a:	4293      	cmp	r3, r2
 800077c:	d120      	bne.n	80007c0 <HAL_UARTEx_RxEventCallback+0x58>
    {
    	if(uart_rx_buf [0] == slave_id && Size == CMD_LENGTH)
 800077e:	4b13      	ldr	r3, [pc, #76]	@ (80007cc <HAL_UARTEx_RxEventCallback+0x64>)
 8000780:	781a      	ldrb	r2, [r3, #0]
 8000782:	4b13      	ldr	r3, [pc, #76]	@ (80007d0 <HAL_UARTEx_RxEventCallback+0x68>)
 8000784:	781b      	ldrb	r3, [r3, #0]
 8000786:	429a      	cmp	r2, r3
 8000788:	d106      	bne.n	8000798 <HAL_UARTEx_RxEventCallback+0x30>
 800078a:	887b      	ldrh	r3, [r7, #2]
 800078c:	2b08      	cmp	r3, #8
 800078e:	d103      	bne.n	8000798 <HAL_UARTEx_RxEventCallback+0x30>
    	{
			uart_interrupt_flag = SET;
 8000790:	4b10      	ldr	r3, [pc, #64]	@ (80007d4 <HAL_UARTEx_RxEventCallback+0x6c>)
 8000792:	2201      	movs	r2, #1
 8000794:	701a      	strb	r2, [r3, #0]
    		HAL_UARTEx_ReceiveToIdle_DMA(&huart1, uart_rx_buf, UART_SIZE);
    		__HAL_DMA_DISABLE_IT(&hdma_usart1_rx, DMA_IT_HT);

    	}
    }
}
 8000796:	e013      	b.n	80007c0 <HAL_UARTEx_RxEventCallback+0x58>
    		memset(uart_rx_buf, 0x0, UART_SIZE);
 8000798:	f44f 7280 	mov.w	r2, #256	@ 0x100
 800079c:	2100      	movs	r1, #0
 800079e:	480b      	ldr	r0, [pc, #44]	@ (80007cc <HAL_UARTEx_RxEventCallback+0x64>)
 80007a0:	f002 fe9c 	bl	80034dc <memset>
    		HAL_UARTEx_ReceiveToIdle_DMA(&huart1, uart_rx_buf, UART_SIZE);
 80007a4:	f44f 7280 	mov.w	r2, #256	@ 0x100
 80007a8:	4908      	ldr	r1, [pc, #32]	@ (80007cc <HAL_UARTEx_RxEventCallback+0x64>)
 80007aa:	480b      	ldr	r0, [pc, #44]	@ (80007d8 <HAL_UARTEx_RxEventCallback+0x70>)
 80007ac:	f001 fd90 	bl	80022d0 <HAL_UARTEx_ReceiveToIdle_DMA>
    		__HAL_DMA_DISABLE_IT(&hdma_usart1_rx, DMA_IT_HT);
 80007b0:	4b0a      	ldr	r3, [pc, #40]	@ (80007dc <HAL_UARTEx_RxEventCallback+0x74>)
 80007b2:	681b      	ldr	r3, [r3, #0]
 80007b4:	681a      	ldr	r2, [r3, #0]
 80007b6:	4b09      	ldr	r3, [pc, #36]	@ (80007dc <HAL_UARTEx_RxEventCallback+0x74>)
 80007b8:	681b      	ldr	r3, [r3, #0]
 80007ba:	f022 0208 	bic.w	r2, r2, #8
 80007be:	601a      	str	r2, [r3, #0]
}
 80007c0:	bf00      	nop
 80007c2:	3708      	adds	r7, #8
 80007c4:	46bd      	mov	sp, r7
 80007c6:	bd80      	pop	{r7, pc}
 80007c8:	40011000 	.word	0x40011000
 80007cc:	2000002c 	.word	0x2000002c
 80007d0:	20000000 	.word	0x20000000
 80007d4:	2000012c 	.word	0x2000012c
 80007d8:	20000130 	.word	0x20000130
 80007dc:	20000178 	.word	0x20000178

080007e0 <system_uart_command>:

static void system_uart_command(void)
{
 80007e0:	b580      	push	{r7, lr}
 80007e2:	b082      	sub	sp, #8
 80007e4:	af00      	add	r7, sp, #0
	uart_interrupt_flag = RESET;
 80007e6:	4b06      	ldr	r3, [pc, #24]	@ (8000800 <system_uart_command+0x20>)
 80007e8:	2200      	movs	r2, #0
 80007ea:	701a      	strb	r2, [r3, #0]
	uint8_t crc_validation = crc_check(uart_rx_buf);
 80007ec:	4805      	ldr	r0, [pc, #20]	@ (8000804 <system_uart_command+0x24>)
 80007ee:	f7ff fec5 	bl	800057c <crc_check>
 80007f2:	4603      	mov	r3, r0
 80007f4:	71fb      	strb	r3, [r7, #7]
	if(crc_validation == SUCCESS)
	{

	}

}
 80007f6:	bf00      	nop
 80007f8:	3708      	adds	r7, #8
 80007fa:	46bd      	mov	sp, r7
 80007fc:	bd80      	pop	{r7, pc}
 80007fe:	bf00      	nop
 8000800:	2000012c 	.word	0x2000012c
 8000804:	2000002c 	.word	0x2000002c

08000808 <Error_Handler>:
/**
  * @brief  This function is executed in case of error occurrence.
  * @retval None
  */
void Error_Handler(void)
{
 8000808:	b480      	push	{r7}
 800080a:	af00      	add	r7, sp, #0
  \details Disables IRQ interrupts by setting special-purpose register PRIMASK.
           Can only be executed in Privileged modes.
 */
__STATIC_FORCEINLINE void __disable_irq(void)
{
  __ASM volatile ("cpsid i" : : : "memory");
 800080c:	b672      	cpsid	i
}
 800080e:	bf00      	nop
  /* USER CODE BEGIN Error_Handler_Debug */
  /* User can add his own implementation to report the HAL error return state */
  __disable_irq();
  while (1)
 8000810:	bf00      	nop
 8000812:	e7fd      	b.n	8000810 <Error_Handler+0x8>

08000814 <HAL_MspInit>:
/* USER CODE END 0 */
/**
  * Initializes the Global MSP.
  */
void HAL_MspInit(void)
{
 8000814:	b580      	push	{r7, lr}
 8000816:	b082      	sub	sp, #8
 8000818:	af00      	add	r7, sp, #0

  /* USER CODE BEGIN MspInit 0 */

  /* USER CODE END MspInit 0 */

  __HAL_RCC_SYSCFG_CLK_ENABLE();
 800081a:	2300      	movs	r3, #0
 800081c:	607b      	str	r3, [r7, #4]
 800081e:	4b10      	ldr	r3, [pc, #64]	@ (8000860 <HAL_MspInit+0x4c>)
 8000820:	6c5b      	ldr	r3, [r3, #68]	@ 0x44
 8000822:	4a0f      	ldr	r2, [pc, #60]	@ (8000860 <HAL_MspInit+0x4c>)
 8000824:	f443 4380 	orr.w	r3, r3, #16384	@ 0x4000
 8000828:	6453      	str	r3, [r2, #68]	@ 0x44
 800082a:	4b0d      	ldr	r3, [pc, #52]	@ (8000860 <HAL_MspInit+0x4c>)
 800082c:	6c5b      	ldr	r3, [r3, #68]	@ 0x44
 800082e:	f403 4380 	and.w	r3, r3, #16384	@ 0x4000
 8000832:	607b      	str	r3, [r7, #4]
 8000834:	687b      	ldr	r3, [r7, #4]
  __HAL_RCC_PWR_CLK_ENABLE();
 8000836:	2300      	movs	r3, #0
 8000838:	603b      	str	r3, [r7, #0]
 800083a:	4b09      	ldr	r3, [pc, #36]	@ (8000860 <HAL_MspInit+0x4c>)
 800083c:	6c1b      	ldr	r3, [r3, #64]	@ 0x40
 800083e:	4a08      	ldr	r2, [pc, #32]	@ (8000860 <HAL_MspInit+0x4c>)
 8000840:	f043 5380 	orr.w	r3, r3, #268435456	@ 0x10000000
 8000844:	6413      	str	r3, [r2, #64]	@ 0x40
 8000846:	4b06      	ldr	r3, [pc, #24]	@ (8000860 <HAL_MspInit+0x4c>)
 8000848:	6c1b      	ldr	r3, [r3, #64]	@ 0x40
 800084a:	f003 5380 	and.w	r3, r3, #268435456	@ 0x10000000
 800084e:	603b      	str	r3, [r7, #0]
 8000850:	683b      	ldr	r3, [r7, #0]

  HAL_NVIC_SetPriorityGrouping(NVIC_PRIORITYGROUP_0);
 8000852:	2007      	movs	r0, #7
 8000854:	f000 fa74 	bl	8000d40 <HAL_NVIC_SetPriorityGrouping>
  /* System interrupt init*/

  /* USER CODE BEGIN MspInit 1 */

  /* USER CODE END MspInit 1 */
}
 8000858:	bf00      	nop
 800085a:	3708      	adds	r7, #8
 800085c:	46bd      	mov	sp, r7
 800085e:	bd80      	pop	{r7, pc}
 8000860:	40023800 	.word	0x40023800

08000864 <NMI_Handler>:
/******************************************************************************/
/**
  * @brief This function handles Non maskable interrupt.
  */
void NMI_Handler(void)
{
 8000864:	b480      	push	{r7}
 8000866:	af00      	add	r7, sp, #0
  /* USER CODE BEGIN NonMaskableInt_IRQn 0 */

  /* USER CODE END NonMaskableInt_IRQn 0 */
  /* USER CODE BEGIN NonMaskableInt_IRQn 1 */
   while (1)
 8000868:	bf00      	nop
 800086a:	e7fd      	b.n	8000868 <NMI_Handler+0x4>

0800086c <HardFault_Handler>:

/**
  * @brief This function handles Hard fault interrupt.
  */
void HardFault_Handler(void)
{
 800086c:	b480      	push	{r7}
 800086e:	af00      	add	r7, sp, #0
  /* USER CODE BEGIN HardFault_IRQn 0 */

  /* USER CODE END HardFault_IRQn 0 */
  while (1)
 8000870:	bf00      	nop
 8000872:	e7fd      	b.n	8000870 <HardFault_Handler+0x4>

08000874 <MemManage_Handler>:

/**
  * @brief This function handles Memory management fault.
  */
void MemManage_Handler(void)
{
 8000874:	b480      	push	{r7}
 8000876:	af00      	add	r7, sp, #0
  /* USER CODE BEGIN MemoryManagement_IRQn 0 */

  /* USER CODE END MemoryManagement_IRQn 0 */
  while (1)
 8000878:	bf00      	nop
 800087a:	e7fd      	b.n	8000878 <MemManage_Handler+0x4>

0800087c <BusFault_Handler>:

/**
  * @brief This function handles Pre-fetch fault, memory access fault.
  */
void BusFault_Handler(void)
{
 800087c:	b480      	push	{r7}
 800087e:	af00      	add	r7, sp, #0
  /* USER CODE BEGIN BusFault_IRQn 0 */

  /* USER CODE END BusFault_IRQn 0 */
  while (1)
 8000880:	bf00      	nop
 8000882:	e7fd      	b.n	8000880 <BusFault_Handler+0x4>

08000884 <UsageFault_Handler>:

/**
  * @brief This function handles Undefined instruction or illegal state.
  */
void UsageFault_Handler(void)
{
 8000884:	b480      	push	{r7}
 8000886:	af00      	add	r7, sp, #0
  /* USER CODE BEGIN UsageFault_IRQn 0 */

  /* USER CODE END UsageFault_IRQn 0 */
  while (1)
 8000888:	bf00      	nop
 800088a:	e7fd      	b.n	8000888 <UsageFault_Handler+0x4>

0800088c <SVC_Handler>:

/**
  * @brief This function handles System service call via SWI instruction.
  */
void SVC_Handler(void)
{
 800088c:	b480      	push	{r7}
 800088e:	af00      	add	r7, sp, #0

  /* USER CODE END SVCall_IRQn 0 */
  /* USER CODE BEGIN SVCall_IRQn 1 */

  /* USER CODE END SVCall_IRQn 1 */
}
 8000890:	bf00      	nop
 8000892:	46bd      	mov	sp, r7
 8000894:	f85d 7b04 	ldr.w	r7, [sp], #4
 8000898:	4770      	bx	lr

0800089a <DebugMon_Handler>:

/**
  * @brief This function handles Debug monitor.
  */
void DebugMon_Handler(void)
{
 800089a:	b480      	push	{r7}
 800089c:	af00      	add	r7, sp, #0

  /* USER CODE END DebugMonitor_IRQn 0 */
  /* USER CODE BEGIN DebugMonitor_IRQn 1 */

  /* USER CODE END DebugMonitor_IRQn 1 */
}
 800089e:	bf00      	nop
 80008a0:	46bd      	mov	sp, r7
 80008a2:	f85d 7b04 	ldr.w	r7, [sp], #4
 80008a6:	4770      	bx	lr

080008a8 <PendSV_Handler>:

/**
  * @brief This function handles Pendable request for system service.
  */
void PendSV_Handler(void)
{
 80008a8:	b480      	push	{r7}
 80008aa:	af00      	add	r7, sp, #0

  /* USER CODE END PendSV_IRQn 0 */
  /* USER CODE BEGIN PendSV_IRQn 1 */

  /* USER CODE END PendSV_IRQn 1 */
}
 80008ac:	bf00      	nop
 80008ae:	46bd      	mov	sp, r7
 80008b0:	f85d 7b04 	ldr.w	r7, [sp], #4
 80008b4:	4770      	bx	lr

080008b6 <SysTick_Handler>:

/**
  * @brief This function handles System tick timer.
  */
void SysTick_Handler(void)
{
 80008b6:	b580      	push	{r7, lr}
 80008b8:	af00      	add	r7, sp, #0
  /* USER CODE BEGIN SysTick_IRQn 0 */

  /* USER CODE END SysTick_IRQn 0 */
  HAL_IncTick();
 80008ba:	f000 f951 	bl	8000b60 <HAL_IncTick>
  /* USER CODE BEGIN SysTick_IRQn 1 */

  /* USER CODE END SysTick_IRQn 1 */
}
 80008be:	bf00      	nop
 80008c0:	bd80      	pop	{r7, pc}
	...

080008c4 <USART1_IRQHandler>:

/**
  * @brief This function handles USART1 global interrupt.
  */
void USART1_IRQHandler(void)
{
 80008c4:	b580      	push	{r7, lr}
 80008c6:	af00      	add	r7, sp, #0
  /* USER CODE BEGIN USART1_IRQn 0 */

  /* USER CODE END USART1_IRQn 0 */
  HAL_UART_IRQHandler(&huart1);
 80008c8:	4802      	ldr	r0, [pc, #8]	@ (80008d4 <USART1_IRQHandler+0x10>)
 80008ca:	f001 fd5b 	bl	8002384 <HAL_UART_IRQHandler>
  /* USER CODE BEGIN USART1_IRQn 1 */

  /* USER CODE END USART1_IRQn 1 */
}
 80008ce:	bf00      	nop
 80008d0:	bd80      	pop	{r7, pc}
 80008d2:	bf00      	nop
 80008d4:	20000130 	.word	0x20000130

080008d8 <DMA2_Stream2_IRQHandler>:

/**
  * @brief This function handles DMA2 stream2 global interrupt.
  */
void DMA2_Stream2_IRQHandler(void)
{
 80008d8:	b580      	push	{r7, lr}
 80008da:	af00      	add	r7, sp, #0
  /* USER CODE BEGIN DMA2_Stream2_IRQn 0 */

  /* USER CODE END DMA2_Stream2_IRQn 0 */
  HAL_DMA_IRQHandler(&hdma_usart1_rx);
 80008dc:	4802      	ldr	r0, [pc, #8]	@ (80008e8 <DMA2_Stream2_IRQHandler+0x10>)
 80008de:	f000 fc09 	bl	80010f4 <HAL_DMA_IRQHandler>
  /* USER CODE BEGIN DMA2_Stream2_IRQn 1 */

  /* USER CODE END DMA2_Stream2_IRQn 1 */
}
 80008e2:	bf00      	nop
 80008e4:	bd80      	pop	{r7, pc}
 80008e6:	bf00      	nop
 80008e8:	20000178 	.word	0x20000178

080008ec <SystemInit>:
  *         configuration.
  * @param  None
  * @retval None
  */
void SystemInit(void)
{
 80008ec:	b480      	push	{r7}
 80008ee:	af00      	add	r7, sp, #0
  /* FPU settings ------------------------------------------------------------*/
  #if (__FPU_PRESENT == 1) && (__FPU_USED == 1)
    SCB->CPACR |= ((3UL << 10*2)|(3UL << 11*2));  /* set CP10 and CP11 Full Access */
 80008f0:	4b06      	ldr	r3, [pc, #24]	@ (800090c <SystemInit+0x20>)
 80008f2:	f8d3 3088 	ldr.w	r3, [r3, #136]	@ 0x88
 80008f6:	4a05      	ldr	r2, [pc, #20]	@ (800090c <SystemInit+0x20>)
 80008f8:	f443 0370 	orr.w	r3, r3, #15728640	@ 0xf00000
 80008fc:	f8c2 3088 	str.w	r3, [r2, #136]	@ 0x88

  /* Configure the Vector Table location -------------------------------------*/
#if defined(USER_VECT_TAB_ADDRESS)
  SCB->VTOR = VECT_TAB_BASE_ADDRESS | VECT_TAB_OFFSET; /* Vector Table Relocation in Internal SRAM */
#endif /* USER_VECT_TAB_ADDRESS */
}
 8000900:	bf00      	nop
 8000902:	46bd      	mov	sp, r7
 8000904:	f85d 7b04 	ldr.w	r7, [sp], #4
 8000908:	4770      	bx	lr
 800090a:	bf00      	nop
 800090c:	e000ed00 	.word	0xe000ed00

08000910 <MX_USART1_UART_Init>:
DMA_HandleTypeDef hdma_usart1_rx;

/* USART1 init function */

void MX_USART1_UART_Init(void)
{
 8000910:	b580      	push	{r7, lr}
 8000912:	af00      	add	r7, sp, #0
  /* USER CODE END USART1_Init 0 */

  /* USER CODE BEGIN USART1_Init 1 */

  /* USER CODE END USART1_Init 1 */
  huart1.Instance = USART1;
 8000914:	4b11      	ldr	r3, [pc, #68]	@ (800095c <MX_USART1_UART_Init+0x4c>)
 8000916:	4a12      	ldr	r2, [pc, #72]	@ (8000960 <MX_USART1_UART_Init+0x50>)
 8000918:	601a      	str	r2, [r3, #0]
  huart1.Init.BaudRate = 115200;
 800091a:	4b10      	ldr	r3, [pc, #64]	@ (800095c <MX_USART1_UART_Init+0x4c>)
 800091c:	f44f 32e1 	mov.w	r2, #115200	@ 0x1c200
 8000920:	605a      	str	r2, [r3, #4]
  huart1.Init.WordLength = UART_WORDLENGTH_8B;
 8000922:	4b0e      	ldr	r3, [pc, #56]	@ (800095c <MX_USART1_UART_Init+0x4c>)
 8000924:	2200      	movs	r2, #0
 8000926:	609a      	str	r2, [r3, #8]
  huart1.Init.StopBits = UART_STOPBITS_1;
 8000928:	4b0c      	ldr	r3, [pc, #48]	@ (800095c <MX_USART1_UART_Init+0x4c>)
 800092a:	2200      	movs	r2, #0
 800092c:	60da      	str	r2, [r3, #12]
  huart1.Init.Parity = UART_PARITY_NONE;
 800092e:	4b0b      	ldr	r3, [pc, #44]	@ (800095c <MX_USART1_UART_Init+0x4c>)
 8000930:	2200      	movs	r2, #0
 8000932:	611a      	str	r2, [r3, #16]
  huart1.Init.Mode = UART_MODE_TX_RX;
 8000934:	4b09      	ldr	r3, [pc, #36]	@ (800095c <MX_USART1_UART_Init+0x4c>)
 8000936:	220c      	movs	r2, #12
 8000938:	615a      	str	r2, [r3, #20]
  huart1.Init.HwFlowCtl = UART_HWCONTROL_NONE;
 800093a:	4b08      	ldr	r3, [pc, #32]	@ (800095c <MX_USART1_UART_Init+0x4c>)
 800093c:	2200      	movs	r2, #0
 800093e:	619a      	str	r2, [r3, #24]
  huart1.Init.OverSampling = UART_OVERSAMPLING_16;
 8000940:	4b06      	ldr	r3, [pc, #24]	@ (800095c <MX_USART1_UART_Init+0x4c>)
 8000942:	2200      	movs	r2, #0
 8000944:	61da      	str	r2, [r3, #28]
  if (HAL_UART_Init(&huart1) != HAL_OK)
 8000946:	4805      	ldr	r0, [pc, #20]	@ (800095c <MX_USART1_UART_Init+0x4c>)
 8000948:	f001 fc72 	bl	8002230 <HAL_UART_Init>
 800094c:	4603      	mov	r3, r0
 800094e:	2b00      	cmp	r3, #0
 8000950:	d001      	beq.n	8000956 <MX_USART1_UART_Init+0x46>
  {
    Error_Handler();
 8000952:	f7ff ff59 	bl	8000808 <Error_Handler>
  }
  /* USER CODE BEGIN USART1_Init 2 */

  /* USER CODE END USART1_Init 2 */

}
 8000956:	bf00      	nop
 8000958:	bd80      	pop	{r7, pc}
 800095a:	bf00      	nop
 800095c:	20000130 	.word	0x20000130
 8000960:	40011000 	.word	0x40011000

08000964 <HAL_UART_MspInit>:

void HAL_UART_MspInit(UART_HandleTypeDef* uartHandle)
{
 8000964:	b580      	push	{r7, lr}
 8000966:	b08a      	sub	sp, #40	@ 0x28
 8000968:	af00      	add	r7, sp, #0
 800096a:	6078      	str	r0, [r7, #4]

  GPIO_InitTypeDef GPIO_InitStruct = {0};
 800096c:	f107 0314 	add.w	r3, r7, #20
 8000970:	2200      	movs	r2, #0
 8000972:	601a      	str	r2, [r3, #0]
 8000974:	605a      	str	r2, [r3, #4]
 8000976:	609a      	str	r2, [r3, #8]
 8000978:	60da      	str	r2, [r3, #12]
 800097a:	611a      	str	r2, [r3, #16]
  if(uartHandle->Instance==USART1)
 800097c:	687b      	ldr	r3, [r7, #4]
 800097e:	681b      	ldr	r3, [r3, #0]
 8000980:	4a34      	ldr	r2, [pc, #208]	@ (8000a54 <HAL_UART_MspInit+0xf0>)
 8000982:	4293      	cmp	r3, r2
 8000984:	d161      	bne.n	8000a4a <HAL_UART_MspInit+0xe6>
  {
  /* USER CODE BEGIN USART1_MspInit 0 */

  /* USER CODE END USART1_MspInit 0 */
    /* USART1 clock enable */
    __HAL_RCC_USART1_CLK_ENABLE();
 8000986:	2300      	movs	r3, #0
 8000988:	613b      	str	r3, [r7, #16]
 800098a:	4b33      	ldr	r3, [pc, #204]	@ (8000a58 <HAL_UART_MspInit+0xf4>)
 800098c:	6c5b      	ldr	r3, [r3, #68]	@ 0x44
 800098e:	4a32      	ldr	r2, [pc, #200]	@ (8000a58 <HAL_UART_MspInit+0xf4>)
 8000990:	f043 0310 	orr.w	r3, r3, #16
 8000994:	6453      	str	r3, [r2, #68]	@ 0x44
 8000996:	4b30      	ldr	r3, [pc, #192]	@ (8000a58 <HAL_UART_MspInit+0xf4>)
 8000998:	6c5b      	ldr	r3, [r3, #68]	@ 0x44
 800099a:	f003 0310 	and.w	r3, r3, #16
 800099e:	613b      	str	r3, [r7, #16]
 80009a0:	693b      	ldr	r3, [r7, #16]

    __HAL_RCC_GPIOB_CLK_ENABLE();
 80009a2:	2300      	movs	r3, #0
 80009a4:	60fb      	str	r3, [r7, #12]
 80009a6:	4b2c      	ldr	r3, [pc, #176]	@ (8000a58 <HAL_UART_MspInit+0xf4>)
 80009a8:	6b1b      	ldr	r3, [r3, #48]	@ 0x30
 80009aa:	4a2b      	ldr	r2, [pc, #172]	@ (8000a58 <HAL_UART_MspInit+0xf4>)
 80009ac:	f043 0302 	orr.w	r3, r3, #2
 80009b0:	6313      	str	r3, [r2, #48]	@ 0x30
 80009b2:	4b29      	ldr	r3, [pc, #164]	@ (8000a58 <HAL_UART_MspInit+0xf4>)
 80009b4:	6b1b      	ldr	r3, [r3, #48]	@ 0x30
 80009b6:	f003 0302 	and.w	r3, r3, #2
 80009ba:	60fb      	str	r3, [r7, #12]
 80009bc:	68fb      	ldr	r3, [r7, #12]
    /**USART1 GPIO Configuration
    PB6     ------> USART1_TX
    PB7     ------> USART1_RX
    */
    GPIO_InitStruct.Pin = GPIO_PIN_6|GPIO_PIN_7;
 80009be:	23c0      	movs	r3, #192	@ 0xc0
 80009c0:	617b      	str	r3, [r7, #20]
    GPIO_InitStruct.Mode = GPIO_MODE_AF_PP;
 80009c2:	2302      	movs	r3, #2
 80009c4:	61bb      	str	r3, [r7, #24]
    GPIO_InitStruct.Pull = GPIO_NOPULL;
 80009c6:	2300      	movs	r3, #0
 80009c8:	61fb      	str	r3, [r7, #28]
    GPIO_InitStruct.Speed = GPIO_SPEED_FREQ_VERY_HIGH;
 80009ca:	2303      	movs	r3, #3
 80009cc:	623b      	str	r3, [r7, #32]
    GPIO_InitStruct.Alternate = GPIO_AF7_USART1;
 80009ce:	2307      	movs	r3, #7
 80009d0:	627b      	str	r3, [r7, #36]	@ 0x24
    HAL_GPIO_Init(GPIOB, &GPIO_InitStruct);
 80009d2:	f107 0314 	add.w	r3, r7, #20
 80009d6:	4619      	mov	r1, r3
 80009d8:	4820      	ldr	r0, [pc, #128]	@ (8000a5c <HAL_UART_MspInit+0xf8>)
 80009da:	f000 fdf5 	bl	80015c8 <HAL_GPIO_Init>

    /* USART1 DMA Init */
    /* USART1_RX Init */
    hdma_usart1_rx.Instance = DMA2_Stream2;
 80009de:	4b20      	ldr	r3, [pc, #128]	@ (8000a60 <HAL_UART_MspInit+0xfc>)
 80009e0:	4a20      	ldr	r2, [pc, #128]	@ (8000a64 <HAL_UART_MspInit+0x100>)
 80009e2:	601a      	str	r2, [r3, #0]
    hdma_usart1_rx.Init.Channel = DMA_CHANNEL_4;
 80009e4:	4b1e      	ldr	r3, [pc, #120]	@ (8000a60 <HAL_UART_MspInit+0xfc>)
 80009e6:	f04f 6200 	mov.w	r2, #134217728	@ 0x8000000
 80009ea:	605a      	str	r2, [r3, #4]
    hdma_usart1_rx.Init.Direction = DMA_PERIPH_TO_MEMORY;
 80009ec:	4b1c      	ldr	r3, [pc, #112]	@ (8000a60 <HAL_UART_MspInit+0xfc>)
 80009ee:	2200      	movs	r2, #0
 80009f0:	609a      	str	r2, [r3, #8]
    hdma_usart1_rx.Init.PeriphInc = DMA_PINC_DISABLE;
 80009f2:	4b1b      	ldr	r3, [pc, #108]	@ (8000a60 <HAL_UART_MspInit+0xfc>)
 80009f4:	2200      	movs	r2, #0
 80009f6:	60da      	str	r2, [r3, #12]
    hdma_usart1_rx.Init.MemInc = DMA_MINC_ENABLE;
 80009f8:	4b19      	ldr	r3, [pc, #100]	@ (8000a60 <HAL_UART_MspInit+0xfc>)
 80009fa:	f44f 6280 	mov.w	r2, #1024	@ 0x400
 80009fe:	611a      	str	r2, [r3, #16]
    hdma_usart1_rx.Init.PeriphDataAlignment = DMA_PDATAALIGN_BYTE;
 8000a00:	4b17      	ldr	r3, [pc, #92]	@ (8000a60 <HAL_UART_MspInit+0xfc>)
 8000a02:	2200      	movs	r2, #0
 8000a04:	615a      	str	r2, [r3, #20]
    hdma_usart1_rx.Init.MemDataAlignment = DMA_MDATAALIGN_BYTE;
 8000a06:	4b16      	ldr	r3, [pc, #88]	@ (8000a60 <HAL_UART_MspInit+0xfc>)
 8000a08:	2200      	movs	r2, #0
 8000a0a:	619a      	str	r2, [r3, #24]
    hdma_usart1_rx.Init.Mode = DMA_NORMAL;
 8000a0c:	4b14      	ldr	r3, [pc, #80]	@ (8000a60 <HAL_UART_MspInit+0xfc>)
 8000a0e:	2200      	movs	r2, #0
 8000a10:	61da      	str	r2, [r3, #28]
    hdma_usart1_rx.Init.Priority = DMA_PRIORITY_LOW;
 8000a12:	4b13      	ldr	r3, [pc, #76]	@ (8000a60 <HAL_UART_MspInit+0xfc>)
 8000a14:	2200      	movs	r2, #0
 8000a16:	621a      	str	r2, [r3, #32]
    hdma_usart1_rx.Init.FIFOMode = DMA_FIFOMODE_DISABLE;
 8000a18:	4b11      	ldr	r3, [pc, #68]	@ (8000a60 <HAL_UART_MspInit+0xfc>)
 8000a1a:	2200      	movs	r2, #0
 8000a1c:	625a      	str	r2, [r3, #36]	@ 0x24
    if (HAL_DMA_Init(&hdma_usart1_rx) != HAL_OK)
 8000a1e:	4810      	ldr	r0, [pc, #64]	@ (8000a60 <HAL_UART_MspInit+0xfc>)
 8000a20:	f000 f9d0 	bl	8000dc4 <HAL_DMA_Init>
 8000a24:	4603      	mov	r3, r0
 8000a26:	2b00      	cmp	r3, #0
 8000a28:	d001      	beq.n	8000a2e <HAL_UART_MspInit+0xca>
    {
      Error_Handler();
 8000a2a:	f7ff feed 	bl	8000808 <Error_Handler>
    }

    __HAL_LINKDMA(uartHandle,hdmarx,hdma_usart1_rx);
 8000a2e:	687b      	ldr	r3, [r7, #4]
 8000a30:	4a0b      	ldr	r2, [pc, #44]	@ (8000a60 <HAL_UART_MspInit+0xfc>)
 8000a32:	63da      	str	r2, [r3, #60]	@ 0x3c
 8000a34:	4a0a      	ldr	r2, [pc, #40]	@ (8000a60 <HAL_UART_MspInit+0xfc>)
 8000a36:	687b      	ldr	r3, [r7, #4]
 8000a38:	6393      	str	r3, [r2, #56]	@ 0x38

    /* USART1 interrupt Init */
    HAL_NVIC_SetPriority(USART1_IRQn, 0, 0);
 8000a3a:	2200      	movs	r2, #0
 8000a3c:	2100      	movs	r1, #0
 8000a3e:	2025      	movs	r0, #37	@ 0x25
 8000a40:	f000 f989 	bl	8000d56 <HAL_NVIC_SetPriority>
    HAL_NVIC_EnableIRQ(USART1_IRQn);
 8000a44:	2025      	movs	r0, #37	@ 0x25
 8000a46:	f000 f9a2 	bl	8000d8e <HAL_NVIC_EnableIRQ>
  /* USER CODE BEGIN USART1_MspInit 1 */

  /* USER CODE END USART1_MspInit 1 */
  }
}
 8000a4a:	bf00      	nop
 8000a4c:	3728      	adds	r7, #40	@ 0x28
 8000a4e:	46bd      	mov	sp, r7
 8000a50:	bd80      	pop	{r7, pc}
 8000a52:	bf00      	nop
 8000a54:	40011000 	.word	0x40011000
 8000a58:	40023800 	.word	0x40023800
 8000a5c:	40020400 	.word	0x40020400
 8000a60:	20000178 	.word	0x20000178
 8000a64:	40026440 	.word	0x40026440

08000a68 <Reset_Handler>:
 8000a68:	f8df d034 	ldr.w	sp, [pc, #52]	@ 8000aa0 <LoopFillZerobss+0xe>
 8000a6c:	f7ff ff3e 	bl	80008ec <SystemInit>
 8000a70:	480c      	ldr	r0, [pc, #48]	@ (8000aa4 <LoopFillZerobss+0x12>)
 8000a72:	490d      	ldr	r1, [pc, #52]	@ (8000aa8 <LoopFillZerobss+0x16>)
 8000a74:	4a0d      	ldr	r2, [pc, #52]	@ (8000aac <LoopFillZerobss+0x1a>)
 8000a76:	2300      	movs	r3, #0
 8000a78:	e002      	b.n	8000a80 <LoopCopyDataInit>

08000a7a <CopyDataInit>:
 8000a7a:	58d4      	ldr	r4, [r2, r3]
 8000a7c:	50c4      	str	r4, [r0, r3]
 8000a7e:	3304      	adds	r3, #4

08000a80 <LoopCopyDataInit>:
 8000a80:	18c4      	adds	r4, r0, r3
 8000a82:	428c      	cmp	r4, r1
 8000a84:	d3f9      	bcc.n	8000a7a <CopyDataInit>
 8000a86:	4a0a      	ldr	r2, [pc, #40]	@ (8000ab0 <LoopFillZerobss+0x1e>)
 8000a88:	4c0a      	ldr	r4, [pc, #40]	@ (8000ab4 <LoopFillZerobss+0x22>)
 8000a8a:	2300      	movs	r3, #0
 8000a8c:	e001      	b.n	8000a92 <LoopFillZerobss>

08000a8e <FillZerobss>:
 8000a8e:	6013      	str	r3, [r2, #0]
 8000a90:	3204      	adds	r2, #4

08000a92 <LoopFillZerobss>:
 8000a92:	42a2      	cmp	r2, r4
 8000a94:	d3fb      	bcc.n	8000a8e <FillZerobss>
 8000a96:	f002 fd29 	bl	80034ec <__libc_init_array>
 8000a9a:	f7ff fdd9 	bl	8000650 <main>
 8000a9e:	4770      	bx	lr
 8000aa0:	20020000 	.word	0x20020000
 8000aa4:	20000000 	.word	0x20000000
 8000aa8:	20000010 	.word	0x20000010
 8000aac:	0800357c 	.word	0x0800357c
 8000ab0:	20000010 	.word	0x20000010
 8000ab4:	200001dc 	.word	0x200001dc

08000ab8 <ADC_IRQHandler>:
 8000ab8:	e7fe      	b.n	8000ab8 <ADC_IRQHandler>
	...

08000abc <HAL_Init>:
 8000abc:	b580      	push	{r7, lr}
 8000abe:	af00      	add	r7, sp, #0
 8000ac0:	4b0e      	ldr	r3, [pc, #56]	@ (8000afc <HAL_Init+0x40>)
 8000ac2:	681b      	ldr	r3, [r3, #0]
 8000ac4:	4a0d      	ldr	r2, [pc, #52]	@ (8000afc <HAL_Init+0x40>)
 8000ac6:	f443 7300 	orr.w	r3, r3, #512	@ 0x200
 8000aca:	6013      	str	r3, [r2, #0]
 8000acc:	4b0b      	ldr	r3, [pc, #44]	@ (8000afc <HAL_Init+0x40>)
 8000ace:	681b      	ldr	r3, [r3, #0]
 8000ad0:	4a0a      	ldr	r2, [pc, #40]	@ (8000afc <HAL_Init+0x40>)
 8000ad2:	f443 6380 	orr.w	r3, r3, #1024	@ 0x400
 8000ad6:	6013      	str	r3, [r2, #0]
 8000ad8:	4b08      	ldr	r3, [pc, #32]	@ (8000afc <HAL_Init+0x40>)
 8000ada:	681b      	ldr	r3, [r3, #0]
 8000adc:	4a07      	ldr	r2, [pc, #28]	@ (8000afc <HAL_Init+0x40>)
 8000ade:	f443 7380 	orr.w	r3, r3, #256	@ 0x100
 8000ae2:	6013      	str	r3, [r2, #0]
 8000ae4:	2003      	movs	r0, #3
 8000ae6:	f000 f92b 	bl	8000d40 <HAL_NVIC_SetPriorityGrouping>
 8000aea:	2000      	movs	r0, #0
 8000aec:	f000 f808 	bl	8000b00 <HAL_InitTick>
 8000af0:	f7ff fe90 	bl	8000814 <HAL_MspInit>
 8000af4:	2300      	movs	r3, #0
 8000af6:	4618      	mov	r0, r3
 8000af8:	bd80      	pop	{r7, pc}
 8000afa:	bf00      	nop
 8000afc:	40023c00 	.word	0x40023c00

08000b00 <HAL_InitTick>:
 8000b00:	b580      	push	{r7, lr}
 8000b02:	b082      	sub	sp, #8
 8000b04:	af00      	add	r7, sp, #0
 8000b06:	6078      	str	r0, [r7, #4]
 8000b08:	4b12      	ldr	r3, [pc, #72]	@ (8000b54 <HAL_InitTick+0x54>)
 8000b0a:	681a      	ldr	r2, [r3, #0]
 8000b0c:	4b12      	ldr	r3, [pc, #72]	@ (8000b58 <HAL_InitTick+0x58>)
 8000b0e:	781b      	ldrb	r3, [r3, #0]
 8000b10:	4619      	mov	r1, r3
 8000b12:	f44f 737a 	mov.w	r3, #1000	@ 0x3e8
 8000b16:	fbb3 f3f1 	udiv	r3, r3, r1
 8000b1a:	fbb2 f3f3 	udiv	r3, r2, r3
 8000b1e:	4618      	mov	r0, r3
 8000b20:	f000 f943 	bl	8000daa <HAL_SYSTICK_Config>
 8000b24:	4603      	mov	r3, r0
 8000b26:	2b00      	cmp	r3, #0
 8000b28:	d001      	beq.n	8000b2e <HAL_InitTick+0x2e>
 8000b2a:	2301      	movs	r3, #1
 8000b2c:	e00e      	b.n	8000b4c <HAL_InitTick+0x4c>
 8000b2e:	687b      	ldr	r3, [r7, #4]
 8000b30:	2b0f      	cmp	r3, #15
 8000b32:	d80a      	bhi.n	8000b4a <HAL_InitTick+0x4a>
 8000b34:	2200      	movs	r2, #0
 8000b36:	6879      	ldr	r1, [r7, #4]
 8000b38:	f04f 30ff 	mov.w	r0, #4294967295	@ 0xffffffff
 8000b3c:	f000 f90b 	bl	8000d56 <HAL_NVIC_SetPriority>
 8000b40:	4a06      	ldr	r2, [pc, #24]	@ (8000b5c <HAL_InitTick+0x5c>)
 8000b42:	687b      	ldr	r3, [r7, #4]
 8000b44:	6013      	str	r3, [r2, #0]
 8000b46:	2300      	movs	r3, #0
 8000b48:	e000      	b.n	8000b4c <HAL_InitTick+0x4c>
 8000b4a:	2301      	movs	r3, #1
 8000b4c:	4618      	mov	r0, r3
 8000b4e:	3708      	adds	r7, #8
 8000b50:	46bd      	mov	sp, r7
 8000b52:	bd80      	pop	{r7, pc}
 8000b54:	20000004 	.word	0x20000004
 8000b58:	2000000c 	.word	0x2000000c
 8000b5c:	20000008 	.word	0x20000008

08000b60 <HAL_IncTick>:
 8000b60:	b480      	push	{r7}
 8000b62:	af00      	add	r7, sp, #0
 8000b64:	4b06      	ldr	r3, [pc, #24]	@ (8000b80 <HAL_IncTick+0x20>)
 8000b66:	781b      	ldrb	r3, [r3, #0]
 8000b68:	461a      	mov	r2, r3
 8000b6a:	4b06      	ldr	r3, [pc, #24]	@ (8000b84 <HAL_IncTick+0x24>)
 8000b6c:	681b      	ldr	r3, [r3, #0]
 8000b6e:	4413      	add	r3, r2
 8000b70:	4a04      	ldr	r2, [pc, #16]	@ (8000b84 <HAL_IncTick+0x24>)
 8000b72:	6013      	str	r3, [r2, #0]
 8000b74:	bf00      	nop
 8000b76:	46bd      	mov	sp, r7
 8000b78:	f85d 7b04 	ldr.w	r7, [sp], #4
 8000b7c:	4770      	bx	lr
 8000b7e:	bf00      	nop
 8000b80:	2000000c 	.word	0x2000000c
 8000b84:	200001d8 	.word	0x200001d8

08000b88 <HAL_GetTick>:
 8000b88:	b480      	push	{r7}
 8000b8a:	af00      	add	r7, sp, #0
 8000b8c:	4b03      	ldr	r3, [pc, #12]	@ (8000b9c <HAL_GetTick+0x14>)
 8000b8e:	681b      	ldr	r3, [r3, #0]
 8000b90:	4618      	mov	r0, r3
 8000b92:	46bd      	mov	sp, r7
 8000b94:	f85d 7b04 	ldr.w	r7, [sp], #4
 8000b98:	4770      	bx	lr
 8000b9a:	bf00      	nop
 8000b9c:	200001d8 	.word	0x200001d8

08000ba0 <__NVIC_SetPriorityGrouping>:
 8000ba0:	b480      	push	{r7}
 8000ba2:	b085      	sub	sp, #20
 8000ba4:	af00      	add	r7, sp, #0
 8000ba6:	6078      	str	r0, [r7, #4]
 8000ba8:	687b      	ldr	r3, [r7, #4]
 8000baa:	f003 0307 	and.w	r3, r3, #7
 8000bae:	60fb      	str	r3, [r7, #12]
 8000bb0:	4b0c      	ldr	r3, [pc, #48]	@ (8000be4 <__NVIC_SetPriorityGrouping+0x44>)
 8000bb2:	68db      	ldr	r3, [r3, #12]
 8000bb4:	60bb      	str	r3, [r7, #8]
 8000bb6:	68ba      	ldr	r2, [r7, #8]
 8000bb8:	f64f 03ff 	movw	r3, #63743	@ 0xf8ff
 8000bbc:	4013      	ands	r3, r2
 8000bbe:	60bb      	str	r3, [r7, #8]
 8000bc0:	68fb      	ldr	r3, [r7, #12]
 8000bc2:	021a      	lsls	r2, r3, #8
 8000bc4:	68bb      	ldr	r3, [r7, #8]
 8000bc6:	4313      	orrs	r3, r2
 8000bc8:	f043 63bf 	orr.w	r3, r3, #100139008	@ 0x5f80000
 8000bcc:	f443 3300 	orr.w	r3, r3, #131072	@ 0x20000
 8000bd0:	60bb      	str	r3, [r7, #8]
 8000bd2:	4a04      	ldr	r2, [pc, #16]	@ (8000be4 <__NVIC_SetPriorityGrouping+0x44>)
 8000bd4:	68bb      	ldr	r3, [r7, #8]
 8000bd6:	60d3      	str	r3, [r2, #12]
 8000bd8:	bf00      	nop
 8000bda:	3714      	adds	r7, #20
 8000bdc:	46bd      	mov	sp, r7
 8000bde:	f85d 7b04 	ldr.w	r7, [sp], #4
 8000be2:	4770      	bx	lr
 8000be4:	e000ed00 	.word	0xe000ed00

08000be8 <__NVIC_GetPriorityGrouping>:
 8000be8:	b480      	push	{r7}
 8000bea:	af00      	add	r7, sp, #0
 8000bec:	4b04      	ldr	r3, [pc, #16]	@ (8000c00 <__NVIC_GetPriorityGrouping+0x18>)
 8000bee:	68db      	ldr	r3, [r3, #12]
 8000bf0:	0a1b      	lsrs	r3, r3, #8
 8000bf2:	f003 0307 	and.w	r3, r3, #7
 8000bf6:	4618      	mov	r0, r3
 8000bf8:	46bd      	mov	sp, r7
 8000bfa:	f85d 7b04 	ldr.w	r7, [sp], #4
 8000bfe:	4770      	bx	lr
 8000c00:	e000ed00 	.word	0xe000ed00

08000c04 <__NVIC_EnableIRQ>:
 8000c04:	b480      	push	{r7}
 8000c06:	b083      	sub	sp, #12
 8000c08:	af00      	add	r7, sp, #0
 8000c0a:	4603      	mov	r3, r0
 8000c0c:	71fb      	strb	r3, [r7, #7]
 8000c0e:	f997 3007 	ldrsb.w	r3, [r7, #7]
 8000c12:	2b00      	cmp	r3, #0
 8000c14:	db0b      	blt.n	8000c2e <__NVIC_EnableIRQ+0x2a>
 8000c16:	79fb      	ldrb	r3, [r7, #7]
 8000c18:	f003 021f 	and.w	r2, r3, #31
 8000c1c:	4907      	ldr	r1, [pc, #28]	@ (8000c3c <__NVIC_EnableIRQ+0x38>)
 8000c1e:	f997 3007 	ldrsb.w	r3, [r7, #7]
 8000c22:	095b      	lsrs	r3, r3, #5
 8000c24:	2001      	movs	r0, #1
 8000c26:	fa00 f202 	lsl.w	r2, r0, r2
 8000c2a:	f841 2023 	str.w	r2, [r1, r3, lsl #2]
 8000c2e:	bf00      	nop
 8000c30:	370c      	adds	r7, #12
 8000c32:	46bd      	mov	sp, r7
 8000c34:	f85d 7b04 	ldr.w	r7, [sp], #4
 8000c38:	4770      	bx	lr
 8000c3a:	bf00      	nop
 8000c3c:	e000e100 	.word	0xe000e100

08000c40 <__NVIC_SetPriority>:
 8000c40:	b480      	push	{r7}
 8000c42:	b083      	sub	sp, #12
 8000c44:	af00      	add	r7, sp, #0
 8000c46:	4603      	mov	r3, r0
 8000c48:	6039      	str	r1, [r7, #0]
 8000c4a:	71fb      	strb	r3, [r7, #7]
 8000c4c:	f997 3007 	ldrsb.w	r3, [r7, #7]
 8000c50:	2b00      	cmp	r3, #0
 8000c52:	db0a      	blt.n	8000c6a <__NVIC_SetPriority+0x2a>
 8000c54:	683b      	ldr	r3, [r7, #0]
 8000c56:	b2da      	uxtb	r2, r3
 8000c58:	490c      	ldr	r1, [pc, #48]	@ (8000c8c <__NVIC_SetPriority+0x4c>)
 8000c5a:	f997 3007 	ldrsb.w	r3, [r7, #7]
 8000c5e:	0112      	lsls	r2, r2, #4
 8000c60:	b2d2      	uxtb	r2, r2
 8000c62:	440b      	add	r3, r1
 8000c64:	f883 2300 	strb.w	r2, [r3, #768]	@ 0x300
 8000c68:	e00a      	b.n	8000c80 <__NVIC_SetPriority+0x40>
 8000c6a:	683b      	ldr	r3, [r7, #0]
 8000c6c:	b2da      	uxtb	r2, r3
 8000c6e:	4908      	ldr	r1, [pc, #32]	@ (8000c90 <__NVIC_SetPriority+0x50>)
 8000c70:	79fb      	ldrb	r3, [r7, #7]
 8000c72:	f003 030f 	and.w	r3, r3, #15
 8000c76:	3b04      	subs	r3, #4
 8000c78:	0112      	lsls	r2, r2, #4
 8000c7a:	b2d2      	uxtb	r2, r2
 8000c7c:	440b      	add	r3, r1
 8000c7e:	761a      	strb	r2, [r3, #24]
 8000c80:	bf00      	nop
 8000c82:	370c      	adds	r7, #12
 8000c84:	46bd      	mov	sp, r7
 8000c86:	f85d 7b04 	ldr.w	r7, [sp], #4
 8000c8a:	4770      	bx	lr
 8000c8c:	e000e100 	.word	0xe000e100
 8000c90:	e000ed00 	.word	0xe000ed00

08000c94 <NVIC_EncodePriority>:
 8000c94:	b480      	push	{r7}
 8000c96:	b089      	sub	sp, #36	@ 0x24
 8000c98:	af00      	add	r7, sp, #0
 8000c9a:	60f8      	str	r0, [r7, #12]
 8000c9c:	60b9      	str	r1, [r7, #8]
 8000c9e:	607a      	str	r2, [r7, #4]
 8000ca0:	68fb      	ldr	r3, [r7, #12]
 8000ca2:	f003 0307 	and.w	r3, r3, #7
 8000ca6:	61fb      	str	r3, [r7, #28]
 8000ca8:	69fb      	ldr	r3, [r7, #28]
 8000caa:	f1c3 0307 	rsb	r3, r3, #7
 8000cae:	2b04      	cmp	r3, #4
 8000cb0:	bf28      	it	cs
 8000cb2:	2304      	movcs	r3, #4
 8000cb4:	61bb      	str	r3, [r7, #24]
 8000cb6:	69fb      	ldr	r3, [r7, #28]
 8000cb8:	3304      	adds	r3, #4
 8000cba:	2b06      	cmp	r3, #6
 8000cbc:	d902      	bls.n	8000cc4 <NVIC_EncodePriority+0x30>
 8000cbe:	69fb      	ldr	r3, [r7, #28]
 8000cc0:	3b03      	subs	r3, #3
 8000cc2:	e000      	b.n	8000cc6 <NVIC_EncodePriority+0x32>
 8000cc4:	2300      	movs	r3, #0
 8000cc6:	617b      	str	r3, [r7, #20]
 8000cc8:	f04f 32ff 	mov.w	r2, #4294967295	@ 0xffffffff
 8000ccc:	69bb      	ldr	r3, [r7, #24]
 8000cce:	fa02 f303 	lsl.w	r3, r2, r3
 8000cd2:	43da      	mvns	r2, r3
 8000cd4:	68bb      	ldr	r3, [r7, #8]
 8000cd6:	401a      	ands	r2, r3
 8000cd8:	697b      	ldr	r3, [r7, #20]
 8000cda:	409a      	lsls	r2, r3
 8000cdc:	f04f 31ff 	mov.w	r1, #4294967295	@ 0xffffffff
 8000ce0:	697b      	ldr	r3, [r7, #20]
 8000ce2:	fa01 f303 	lsl.w	r3, r1, r3
 8000ce6:	43d9      	mvns	r1, r3
 8000ce8:	687b      	ldr	r3, [r7, #4]
 8000cea:	400b      	ands	r3, r1
 8000cec:	4313      	orrs	r3, r2
 8000cee:	4618      	mov	r0, r3
 8000cf0:	3724      	adds	r7, #36	@ 0x24
 8000cf2:	46bd      	mov	sp, r7
 8000cf4:	f85d 7b04 	ldr.w	r7, [sp], #4
 8000cf8:	4770      	bx	lr
	...

08000cfc <SysTick_Config>:
 8000cfc:	b580      	push	{r7, lr}
 8000cfe:	b082      	sub	sp, #8
 8000d00:	af00      	add	r7, sp, #0
 8000d02:	6078      	str	r0, [r7, #4]
 8000d04:	687b      	ldr	r3, [r7, #4]
 8000d06:	3b01      	subs	r3, #1
 8000d08:	f1b3 7f80 	cmp.w	r3, #16777216	@ 0x1000000
 8000d0c:	d301      	bcc.n	8000d12 <SysTick_Config+0x16>
 8000d0e:	2301      	movs	r3, #1
 8000d10:	e00f      	b.n	8000d32 <SysTick_Config+0x36>
 8000d12:	4a0a      	ldr	r2, [pc, #40]	@ (8000d3c <SysTick_Config+0x40>)
 8000d14:	687b      	ldr	r3, [r7, #4]
 8000d16:	3b01      	subs	r3, #1
 8000d18:	6053      	str	r3, [r2, #4]
 8000d1a:	210f      	movs	r1, #15
 8000d1c:	f04f 30ff 	mov.w	r0, #4294967295	@ 0xffffffff
 8000d20:	f7ff ff8e 	bl	8000c40 <__NVIC_SetPriority>
 8000d24:	4b05      	ldr	r3, [pc, #20]	@ (8000d3c <SysTick_Config+0x40>)
 8000d26:	2200      	movs	r2, #0
 8000d28:	609a      	str	r2, [r3, #8]
 8000d2a:	4b04      	ldr	r3, [pc, #16]	@ (8000d3c <SysTick_Config+0x40>)
 8000d2c:	2207      	movs	r2, #7
 8000d2e:	601a      	str	r2, [r3, #0]
 8000d30:	2300      	movs	r3, #0
 8000d32:	4618      	mov	r0, r3
 8000d34:	3708      	adds	r7, #8
 8000d36:	46bd      	mov	sp, r7
 8000d38:	bd80      	pop	{r7, pc}
 8000d3a:	bf00      	nop
 8000d3c:	e000e010 	.word	0xe000e010

08000d40 <HAL_NVIC_SetPriorityGrouping>:
 8000d40:	b580      	push	{r7, lr}
 8000d42:	b082      	sub	sp, #8
 8000d44:	af00      	add	r7, sp, #0
 8000d46:	6078      	str	r0, [r7, #4]
 8000d48:	6878      	ldr	r0, [r7, #4]
 8000d4a:	f7ff ff29 	bl	8000ba0 <__NVIC_SetPriorityGrouping>
 8000d4e:	bf00      	nop
 8000d50:	3708      	adds	r7, #8
 8000d52:	46bd      	mov	sp, r7
 8000d54:	bd80      	pop	{r7, pc}

08000d56 <HAL_NVIC_SetPriority>:
 8000d56:	b580      	push	{r7, lr}
 8000d58:	b086      	sub	sp, #24
 8000d5a:	af00      	add	r7, sp, #0
 8000d5c:	4603      	mov	r3, r0
 8000d5e:	60b9      	str	r1, [r7, #8]
 8000d60:	607a      	str	r2, [r7, #4]
 8000d62:	73fb      	strb	r3, [r7, #15]
 8000d64:	2300      	movs	r3, #0
 8000d66:	617b      	str	r3, [r7, #20]
 8000d68:	f7ff ff3e 	bl	8000be8 <__NVIC_GetPriorityGrouping>
 8000d6c:	6178      	str	r0, [r7, #20]
 8000d6e:	687a      	ldr	r2, [r7, #4]
 8000d70:	68b9      	ldr	r1, [r7, #8]
 8000d72:	6978      	ldr	r0, [r7, #20]
 8000d74:	f7ff ff8e 	bl	8000c94 <NVIC_EncodePriority>
 8000d78:	4602      	mov	r2, r0
 8000d7a:	f997 300f 	ldrsb.w	r3, [r7, #15]
 8000d7e:	4611      	mov	r1, r2
 8000d80:	4618      	mov	r0, r3
 8000d82:	f7ff ff5d 	bl	8000c40 <__NVIC_SetPriority>
 8000d86:	bf00      	nop
 8000d88:	3718      	adds	r7, #24
 8000d8a:	46bd      	mov	sp, r7
 8000d8c:	bd80      	pop	{r7, pc}

08000d8e <HAL_NVIC_EnableIRQ>:
 8000d8e:	b580      	push	{r7, lr}
 8000d90:	b082      	sub	sp, #8
 8000d92:	af00      	add	r7, sp, #0
 8000d94:	4603      	mov	r3, r0
 8000d96:	71fb      	strb	r3, [r7, #7]
 8000d98:	f997 3007 	ldrsb.w	r3, [r7, #7]
 8000d9c:	4618      	mov	r0, r3
 8000d9e:	f7ff ff31 	bl	8000c04 <__NVIC_EnableIRQ>
 8000da2:	bf00      	nop
 8000da4:	3708      	adds	r7, #8
 8000da6:	46bd      	mov	sp, r7
 8000da8:	bd80      	pop	{r7, pc}

08000daa <HAL_SYSTICK_Config>:
 8000daa:	b580      	push	{r7, lr}
 8000dac:	b082      	sub	sp, #8
 8000dae:	af00      	add	r7, sp, #0
 8000db0:	6078      	str	r0, [r7, #4]
 8000db2:	6878      	ldr	r0, [r7, #4]
 8000db4:	f7ff ffa2 	bl	8000cfc <SysTick_Config>
 8000db8:	4603      	mov	r3, r0
 8000dba:	4618      	mov	r0, r3
 8000dbc:	3708      	adds	r7, #8
 8000dbe:	46bd      	mov	sp, r7
 8000dc0:	bd80      	pop	{r7, pc}
	...

08000dc4 <HAL_DMA_Init>:
 8000dc4:	b580      	push	{r7, lr}
 8000dc6:	b086      	sub	sp, #24
 8000dc8:	af00      	add	r7, sp, #0
 8000dca:	6078      	str	r0, [r7, #4]
 8000dcc:	2300      	movs	r3, #0
 8000dce:	617b      	str	r3, [r7, #20]
 8000dd0:	f7ff feda 	bl	8000b88 <HAL_GetTick>
 8000dd4:	6138      	str	r0, [r7, #16]
 8000dd6:	687b      	ldr	r3, [r7, #4]
 8000dd8:	2b00      	cmp	r3, #0
 8000dda:	d101      	bne.n	8000de0 <HAL_DMA_Init+0x1c>
 8000ddc:	2301      	movs	r3, #1
 8000dde:	e099      	b.n	8000f14 <HAL_DMA_Init+0x150>
 8000de0:	687b      	ldr	r3, [r7, #4]
 8000de2:	2202      	movs	r2, #2
 8000de4:	f883 2035 	strb.w	r2, [r3, #53]	@ 0x35
 8000de8:	687b      	ldr	r3, [r7, #4]
 8000dea:	2200      	movs	r2, #0
 8000dec:	f883 2034 	strb.w	r2, [r3, #52]	@ 0x34
 8000df0:	687b      	ldr	r3, [r7, #4]
 8000df2:	681b      	ldr	r3, [r3, #0]
 8000df4:	681a      	ldr	r2, [r3, #0]
 8000df6:	687b      	ldr	r3, [r7, #4]
 8000df8:	681b      	ldr	r3, [r3, #0]
 8000dfa:	f022 0201 	bic.w	r2, r2, #1
 8000dfe:	601a      	str	r2, [r3, #0]
 8000e00:	e00f      	b.n	8000e22 <HAL_DMA_Init+0x5e>
 8000e02:	f7ff fec1 	bl	8000b88 <HAL_GetTick>
 8000e06:	4602      	mov	r2, r0
 8000e08:	693b      	ldr	r3, [r7, #16]
 8000e0a:	1ad3      	subs	r3, r2, r3
 8000e0c:	2b05      	cmp	r3, #5
 8000e0e:	d908      	bls.n	8000e22 <HAL_DMA_Init+0x5e>
 8000e10:	687b      	ldr	r3, [r7, #4]
 8000e12:	2220      	movs	r2, #32
 8000e14:	655a      	str	r2, [r3, #84]	@ 0x54
 8000e16:	687b      	ldr	r3, [r7, #4]
 8000e18:	2203      	movs	r2, #3
 8000e1a:	f883 2035 	strb.w	r2, [r3, #53]	@ 0x35
 8000e1e:	2303      	movs	r3, #3
 8000e20:	e078      	b.n	8000f14 <HAL_DMA_Init+0x150>
 8000e22:	687b      	ldr	r3, [r7, #4]
 8000e24:	681b      	ldr	r3, [r3, #0]
 8000e26:	681b      	ldr	r3, [r3, #0]
 8000e28:	f003 0301 	and.w	r3, r3, #1
 8000e2c:	2b00      	cmp	r3, #0
 8000e2e:	d1e8      	bne.n	8000e02 <HAL_DMA_Init+0x3e>
 8000e30:	687b      	ldr	r3, [r7, #4]
 8000e32:	681b      	ldr	r3, [r3, #0]
 8000e34:	681b      	ldr	r3, [r3, #0]
 8000e36:	617b      	str	r3, [r7, #20]
 8000e38:	697a      	ldr	r2, [r7, #20]
 8000e3a:	4b38      	ldr	r3, [pc, #224]	@ (8000f1c <HAL_DMA_Init+0x158>)
 8000e3c:	4013      	ands	r3, r2
 8000e3e:	617b      	str	r3, [r7, #20]
 8000e40:	687b      	ldr	r3, [r7, #4]
 8000e42:	685a      	ldr	r2, [r3, #4]
 8000e44:	687b      	ldr	r3, [r7, #4]
 8000e46:	689b      	ldr	r3, [r3, #8]
 8000e48:	431a      	orrs	r2, r3
 8000e4a:	687b      	ldr	r3, [r7, #4]
 8000e4c:	68db      	ldr	r3, [r3, #12]
 8000e4e:	431a      	orrs	r2, r3
 8000e50:	687b      	ldr	r3, [r7, #4]
 8000e52:	691b      	ldr	r3, [r3, #16]
 8000e54:	431a      	orrs	r2, r3
 8000e56:	687b      	ldr	r3, [r7, #4]
 8000e58:	695b      	ldr	r3, [r3, #20]
 8000e5a:	431a      	orrs	r2, r3
 8000e5c:	687b      	ldr	r3, [r7, #4]
 8000e5e:	699b      	ldr	r3, [r3, #24]
 8000e60:	431a      	orrs	r2, r3
 8000e62:	687b      	ldr	r3, [r7, #4]
 8000e64:	69db      	ldr	r3, [r3, #28]
 8000e66:	431a      	orrs	r2, r3
 8000e68:	687b      	ldr	r3, [r7, #4]
 8000e6a:	6a1b      	ldr	r3, [r3, #32]
 8000e6c:	4313      	orrs	r3, r2
 8000e6e:	697a      	ldr	r2, [r7, #20]
 8000e70:	4313      	orrs	r3, r2
 8000e72:	617b      	str	r3, [r7, #20]
 8000e74:	687b      	ldr	r3, [r7, #4]
 8000e76:	6a5b      	ldr	r3, [r3, #36]	@ 0x24
 8000e78:	2b04      	cmp	r3, #4
 8000e7a:	d107      	bne.n	8000e8c <HAL_DMA_Init+0xc8>
 8000e7c:	687b      	ldr	r3, [r7, #4]
 8000e7e:	6ada      	ldr	r2, [r3, #44]	@ 0x2c
 8000e80:	687b      	ldr	r3, [r7, #4]
 8000e82:	6b1b      	ldr	r3, [r3, #48]	@ 0x30
 8000e84:	4313      	orrs	r3, r2
 8000e86:	697a      	ldr	r2, [r7, #20]
 8000e88:	4313      	orrs	r3, r2
 8000e8a:	617b      	str	r3, [r7, #20]
 8000e8c:	687b      	ldr	r3, [r7, #4]
 8000e8e:	681b      	ldr	r3, [r3, #0]
 8000e90:	697a      	ldr	r2, [r7, #20]
 8000e92:	601a      	str	r2, [r3, #0]
 8000e94:	687b      	ldr	r3, [r7, #4]
 8000e96:	681b      	ldr	r3, [r3, #0]
 8000e98:	695b      	ldr	r3, [r3, #20]
 8000e9a:	617b      	str	r3, [r7, #20]
 8000e9c:	697b      	ldr	r3, [r7, #20]
 8000e9e:	f023 0307 	bic.w	r3, r3, #7
 8000ea2:	617b      	str	r3, [r7, #20]
 8000ea4:	687b      	ldr	r3, [r7, #4]
 8000ea6:	6a5b      	ldr	r3, [r3, #36]	@ 0x24
 8000ea8:	697a      	ldr	r2, [r7, #20]
 8000eaa:	4313      	orrs	r3, r2
 8000eac:	617b      	str	r3, [r7, #20]
 8000eae:	687b      	ldr	r3, [r7, #4]
 8000eb0:	6a5b      	ldr	r3, [r3, #36]	@ 0x24
 8000eb2:	2b04      	cmp	r3, #4
 8000eb4:	d117      	bne.n	8000ee6 <HAL_DMA_Init+0x122>
 8000eb6:	687b      	ldr	r3, [r7, #4]
 8000eb8:	6a9b      	ldr	r3, [r3, #40]	@ 0x28
 8000eba:	697a      	ldr	r2, [r7, #20]
 8000ebc:	4313      	orrs	r3, r2
 8000ebe:	617b      	str	r3, [r7, #20]
 8000ec0:	687b      	ldr	r3, [r7, #4]
 8000ec2:	6adb      	ldr	r3, [r3, #44]	@ 0x2c
 8000ec4:	2b00      	cmp	r3, #0
 8000ec6:	d00e      	beq.n	8000ee6 <HAL_DMA_Init+0x122>
 8000ec8:	6878      	ldr	r0, [r7, #4]
 8000eca:	f000 fb01 	bl	80014d0 <DMA_CheckFifoParam>
 8000ece:	4603      	mov	r3, r0
 8000ed0:	2b00      	cmp	r3, #0
 8000ed2:	d008      	beq.n	8000ee6 <HAL_DMA_Init+0x122>
 8000ed4:	687b      	ldr	r3, [r7, #4]
 8000ed6:	2240      	movs	r2, #64	@ 0x40
 8000ed8:	655a      	str	r2, [r3, #84]	@ 0x54
 8000eda:	687b      	ldr	r3, [r7, #4]
 8000edc:	2201      	movs	r2, #1
 8000ede:	f883 2035 	strb.w	r2, [r3, #53]	@ 0x35
 8000ee2:	2301      	movs	r3, #1
 8000ee4:	e016      	b.n	8000f14 <HAL_DMA_Init+0x150>
 8000ee6:	687b      	ldr	r3, [r7, #4]
 8000ee8:	681b      	ldr	r3, [r3, #0]
 8000eea:	697a      	ldr	r2, [r7, #20]
 8000eec:	615a      	str	r2, [r3, #20]
 8000eee:	6878      	ldr	r0, [r7, #4]
 8000ef0:	f000 fab8 	bl	8001464 <DMA_CalcBaseAndBitshift>
 8000ef4:	4603      	mov	r3, r0
 8000ef6:	60fb      	str	r3, [r7, #12]
 8000ef8:	687b      	ldr	r3, [r7, #4]
 8000efa:	6ddb      	ldr	r3, [r3, #92]	@ 0x5c
 8000efc:	223f      	movs	r2, #63	@ 0x3f
 8000efe:	409a      	lsls	r2, r3
 8000f00:	68fb      	ldr	r3, [r7, #12]
 8000f02:	609a      	str	r2, [r3, #8]
 8000f04:	687b      	ldr	r3, [r7, #4]
 8000f06:	2200      	movs	r2, #0
 8000f08:	655a      	str	r2, [r3, #84]	@ 0x54
 8000f0a:	687b      	ldr	r3, [r7, #4]
 8000f0c:	2201      	movs	r2, #1
 8000f0e:	f883 2035 	strb.w	r2, [r3, #53]	@ 0x35
 8000f12:	2300      	movs	r3, #0
 8000f14:	4618      	mov	r0, r3
 8000f16:	3718      	adds	r7, #24
 8000f18:	46bd      	mov	sp, r7
 8000f1a:	bd80      	pop	{r7, pc}
 8000f1c:	f010803f 	.word	0xf010803f

08000f20 <HAL_DMA_Start_IT>:
 8000f20:	b580      	push	{r7, lr}
 8000f22:	b086      	sub	sp, #24
 8000f24:	af00      	add	r7, sp, #0
 8000f26:	60f8      	str	r0, [r7, #12]
 8000f28:	60b9      	str	r1, [r7, #8]
 8000f2a:	607a      	str	r2, [r7, #4]
 8000f2c:	603b      	str	r3, [r7, #0]
 8000f2e:	2300      	movs	r3, #0
 8000f30:	75fb      	strb	r3, [r7, #23]
 8000f32:	68fb      	ldr	r3, [r7, #12]
 8000f34:	6d9b      	ldr	r3, [r3, #88]	@ 0x58
 8000f36:	613b      	str	r3, [r7, #16]
 8000f38:	68fb      	ldr	r3, [r7, #12]
 8000f3a:	f893 3034 	ldrb.w	r3, [r3, #52]	@ 0x34
 8000f3e:	2b01      	cmp	r3, #1
 8000f40:	d101      	bne.n	8000f46 <HAL_DMA_Start_IT+0x26>
 8000f42:	2302      	movs	r3, #2
 8000f44:	e040      	b.n	8000fc8 <HAL_DMA_Start_IT+0xa8>
 8000f46:	68fb      	ldr	r3, [r7, #12]
 8000f48:	2201      	movs	r2, #1
 8000f4a:	f883 2034 	strb.w	r2, [r3, #52]	@ 0x34
 8000f4e:	68fb      	ldr	r3, [r7, #12]
 8000f50:	f893 3035 	ldrb.w	r3, [r3, #53]	@ 0x35
 8000f54:	b2db      	uxtb	r3, r3
 8000f56:	2b01      	cmp	r3, #1
 8000f58:	d12f      	bne.n	8000fba <HAL_DMA_Start_IT+0x9a>
 8000f5a:	68fb      	ldr	r3, [r7, #12]
 8000f5c:	2202      	movs	r2, #2
 8000f5e:	f883 2035 	strb.w	r2, [r3, #53]	@ 0x35
 8000f62:	68fb      	ldr	r3, [r7, #12]
 8000f64:	2200      	movs	r2, #0
 8000f66:	655a      	str	r2, [r3, #84]	@ 0x54
 8000f68:	683b      	ldr	r3, [r7, #0]
 8000f6a:	687a      	ldr	r2, [r7, #4]
 8000f6c:	68b9      	ldr	r1, [r7, #8]
 8000f6e:	68f8      	ldr	r0, [r7, #12]
 8000f70:	f000 fa4a 	bl	8001408 <DMA_SetConfig>
 8000f74:	68fb      	ldr	r3, [r7, #12]
 8000f76:	6ddb      	ldr	r3, [r3, #92]	@ 0x5c
 8000f78:	223f      	movs	r2, #63	@ 0x3f
 8000f7a:	409a      	lsls	r2, r3
 8000f7c:	693b      	ldr	r3, [r7, #16]
 8000f7e:	609a      	str	r2, [r3, #8]
 8000f80:	68fb      	ldr	r3, [r7, #12]
 8000f82:	681b      	ldr	r3, [r3, #0]
 8000f84:	681a      	ldr	r2, [r3, #0]
 8000f86:	68fb      	ldr	r3, [r7, #12]
 8000f88:	681b      	ldr	r3, [r3, #0]
 8000f8a:	f042 0216 	orr.w	r2, r2, #22
 8000f8e:	601a      	str	r2, [r3, #0]
 8000f90:	68fb      	ldr	r3, [r7, #12]
 8000f92:	6c1b      	ldr	r3, [r3, #64]	@ 0x40
 8000f94:	2b00      	cmp	r3, #0
 8000f96:	d007      	beq.n	8000fa8 <HAL_DMA_Start_IT+0x88>
 8000f98:	68fb      	ldr	r3, [r7, #12]
 8000f9a:	681b      	ldr	r3, [r3, #0]
 8000f9c:	681a      	ldr	r2, [r3, #0]
 8000f9e:	68fb      	ldr	r3, [r7, #12]
 8000fa0:	681b      	ldr	r3, [r3, #0]
 8000fa2:	f042 0208 	orr.w	r2, r2, #8
 8000fa6:	601a      	str	r2, [r3, #0]
 8000fa8:	68fb      	ldr	r3, [r7, #12]
 8000faa:	681b      	ldr	r3, [r3, #0]
 8000fac:	681a      	ldr	r2, [r3, #0]
 8000fae:	68fb      	ldr	r3, [r7, #12]
 8000fb0:	681b      	ldr	r3, [r3, #0]
 8000fb2:	f042 0201 	orr.w	r2, r2, #1
 8000fb6:	601a      	str	r2, [r3, #0]
 8000fb8:	e005      	b.n	8000fc6 <HAL_DMA_Start_IT+0xa6>
 8000fba:	68fb      	ldr	r3, [r7, #12]
 8000fbc:	2200      	movs	r2, #0
 8000fbe:	f883 2034 	strb.w	r2, [r3, #52]	@ 0x34
 8000fc2:	2302      	movs	r3, #2
 8000fc4:	75fb      	strb	r3, [r7, #23]
 8000fc6:	7dfb      	ldrb	r3, [r7, #23]
 8000fc8:	4618      	mov	r0, r3
 8000fca:	3718      	adds	r7, #24
 8000fcc:	46bd      	mov	sp, r7
 8000fce:	bd80      	pop	{r7, pc}

08000fd0 <HAL_DMA_Abort>:
 8000fd0:	b580      	push	{r7, lr}
 8000fd2:	b084      	sub	sp, #16
 8000fd4:	af00      	add	r7, sp, #0
 8000fd6:	6078      	str	r0, [r7, #4]
 8000fd8:	687b      	ldr	r3, [r7, #4]
 8000fda:	6d9b      	ldr	r3, [r3, #88]	@ 0x58
 8000fdc:	60fb      	str	r3, [r7, #12]
 8000fde:	f7ff fdd3 	bl	8000b88 <HAL_GetTick>
 8000fe2:	60b8      	str	r0, [r7, #8]
 8000fe4:	687b      	ldr	r3, [r7, #4]
 8000fe6:	f893 3035 	ldrb.w	r3, [r3, #53]	@ 0x35
 8000fea:	b2db      	uxtb	r3, r3
 8000fec:	2b02      	cmp	r3, #2
 8000fee:	d008      	beq.n	8001002 <HAL_DMA_Abort+0x32>
 8000ff0:	687b      	ldr	r3, [r7, #4]
 8000ff2:	2280      	movs	r2, #128	@ 0x80
 8000ff4:	655a      	str	r2, [r3, #84]	@ 0x54
 8000ff6:	687b      	ldr	r3, [r7, #4]
 8000ff8:	2200      	movs	r2, #0
 8000ffa:	f883 2034 	strb.w	r2, [r3, #52]	@ 0x34
 8000ffe:	2301      	movs	r3, #1
 8001000:	e052      	b.n	80010a8 <HAL_DMA_Abort+0xd8>
 8001002:	687b      	ldr	r3, [r7, #4]
 8001004:	681b      	ldr	r3, [r3, #0]
 8001006:	681a      	ldr	r2, [r3, #0]
 8001008:	687b      	ldr	r3, [r7, #4]
 800100a:	681b      	ldr	r3, [r3, #0]
 800100c:	f022 0216 	bic.w	r2, r2, #22
 8001010:	601a      	str	r2, [r3, #0]
 8001012:	687b      	ldr	r3, [r7, #4]
 8001014:	681b      	ldr	r3, [r3, #0]
 8001016:	695a      	ldr	r2, [r3, #20]
 8001018:	687b      	ldr	r3, [r7, #4]
 800101a:	681b      	ldr	r3, [r3, #0]
 800101c:	f022 0280 	bic.w	r2, r2, #128	@ 0x80
 8001020:	615a      	str	r2, [r3, #20]
 8001022:	687b      	ldr	r3, [r7, #4]
 8001024:	6c1b      	ldr	r3, [r3, #64]	@ 0x40
 8001026:	2b00      	cmp	r3, #0
 8001028:	d103      	bne.n	8001032 <HAL_DMA_Abort+0x62>
 800102a:	687b      	ldr	r3, [r7, #4]
 800102c:	6c9b      	ldr	r3, [r3, #72]	@ 0x48
 800102e:	2b00      	cmp	r3, #0
 8001030:	d007      	beq.n	8001042 <HAL_DMA_Abort+0x72>
 8001032:	687b      	ldr	r3, [r7, #4]
 8001034:	681b      	ldr	r3, [r3, #0]
 8001036:	681a      	ldr	r2, [r3, #0]
 8001038:	687b      	ldr	r3, [r7, #4]
 800103a:	681b      	ldr	r3, [r3, #0]
 800103c:	f022 0208 	bic.w	r2, r2, #8
 8001040:	601a      	str	r2, [r3, #0]
 8001042:	687b      	ldr	r3, [r7, #4]
 8001044:	681b      	ldr	r3, [r3, #0]
 8001046:	681a      	ldr	r2, [r3, #0]
 8001048:	687b      	ldr	r3, [r7, #4]
 800104a:	681b      	ldr	r3, [r3, #0]
 800104c:	f022 0201 	bic.w	r2, r2, #1
 8001050:	601a      	str	r2, [r3, #0]
 8001052:	e013      	b.n	800107c <HAL_DMA_Abort+0xac>
 8001054:	f7ff fd98 	bl	8000b88 <HAL_GetTick>
 8001058:	4602      	mov	r2, r0
 800105a:	68bb      	ldr	r3, [r7, #8]
 800105c:	1ad3      	subs	r3, r2, r3
 800105e:	2b05      	cmp	r3, #5
 8001060:	d90c      	bls.n	800107c <HAL_DMA_Abort+0xac>
 8001062:	687b      	ldr	r3, [r7, #4]
 8001064:	2220      	movs	r2, #32
 8001066:	655a      	str	r2, [r3, #84]	@ 0x54
 8001068:	687b      	ldr	r3, [r7, #4]
 800106a:	2203      	movs	r2, #3
 800106c:	f883 2035 	strb.w	r2, [r3, #53]	@ 0x35
 8001070:	687b      	ldr	r3, [r7, #4]
 8001072:	2200      	movs	r2, #0
 8001074:	f883 2034 	strb.w	r2, [r3, #52]	@ 0x34
 8001078:	2303      	movs	r3, #3
 800107a:	e015      	b.n	80010a8 <HAL_DMA_Abort+0xd8>
 800107c:	687b      	ldr	r3, [r7, #4]
 800107e:	681b      	ldr	r3, [r3, #0]
 8001080:	681b      	ldr	r3, [r3, #0]
 8001082:	f003 0301 	and.w	r3, r3, #1
 8001086:	2b00      	cmp	r3, #0
 8001088:	d1e4      	bne.n	8001054 <HAL_DMA_Abort+0x84>
 800108a:	687b      	ldr	r3, [r7, #4]
 800108c:	6ddb      	ldr	r3, [r3, #92]	@ 0x5c
 800108e:	223f      	movs	r2, #63	@ 0x3f
 8001090:	409a      	lsls	r2, r3
 8001092:	68fb      	ldr	r3, [r7, #12]
 8001094:	609a      	str	r2, [r3, #8]
 8001096:	687b      	ldr	r3, [r7, #4]
 8001098:	2201      	movs	r2, #1
 800109a:	f883 2035 	strb.w	r2, [r3, #53]	@ 0x35
 800109e:	687b      	ldr	r3, [r7, #4]
 80010a0:	2200      	movs	r2, #0
 80010a2:	f883 2034 	strb.w	r2, [r3, #52]	@ 0x34
 80010a6:	2300      	movs	r3, #0
 80010a8:	4618      	mov	r0, r3
 80010aa:	3710      	adds	r7, #16
 80010ac:	46bd      	mov	sp, r7
 80010ae:	bd80      	pop	{r7, pc}

080010b0 <HAL_DMA_Abort_IT>:
 80010b0:	b480      	push	{r7}
 80010b2:	b083      	sub	sp, #12
 80010b4:	af00      	add	r7, sp, #0
 80010b6:	6078      	str	r0, [r7, #4]
 80010b8:	687b      	ldr	r3, [r7, #4]
 80010ba:	f893 3035 	ldrb.w	r3, [r3, #53]	@ 0x35
 80010be:	b2db      	uxtb	r3, r3
 80010c0:	2b02      	cmp	r3, #2
 80010c2:	d004      	beq.n	80010ce <HAL_DMA_Abort_IT+0x1e>
 80010c4:	687b      	ldr	r3, [r7, #4]
 80010c6:	2280      	movs	r2, #128	@ 0x80
 80010c8:	655a      	str	r2, [r3, #84]	@ 0x54
 80010ca:	2301      	movs	r3, #1
 80010cc:	e00c      	b.n	80010e8 <HAL_DMA_Abort_IT+0x38>
 80010ce:	687b      	ldr	r3, [r7, #4]
 80010d0:	2205      	movs	r2, #5
 80010d2:	f883 2035 	strb.w	r2, [r3, #53]	@ 0x35
 80010d6:	687b      	ldr	r3, [r7, #4]
 80010d8:	681b      	ldr	r3, [r3, #0]
 80010da:	681a      	ldr	r2, [r3, #0]
 80010dc:	687b      	ldr	r3, [r7, #4]
 80010de:	681b      	ldr	r3, [r3, #0]
 80010e0:	f022 0201 	bic.w	r2, r2, #1
 80010e4:	601a      	str	r2, [r3, #0]
 80010e6:	2300      	movs	r3, #0
 80010e8:	4618      	mov	r0, r3
 80010ea:	370c      	adds	r7, #12
 80010ec:	46bd      	mov	sp, r7
 80010ee:	f85d 7b04 	ldr.w	r7, [sp], #4
 80010f2:	4770      	bx	lr

080010f4 <HAL_DMA_IRQHandler>:
 80010f4:	b580      	push	{r7, lr}
 80010f6:	b086      	sub	sp, #24
 80010f8:	af00      	add	r7, sp, #0
 80010fa:	6078      	str	r0, [r7, #4]
 80010fc:	2300      	movs	r3, #0
 80010fe:	60bb      	str	r3, [r7, #8]
 8001100:	4b8e      	ldr	r3, [pc, #568]	@ (800133c <HAL_DMA_IRQHandler+0x248>)
 8001102:	681b      	ldr	r3, [r3, #0]
 8001104:	4a8e      	ldr	r2, [pc, #568]	@ (8001340 <HAL_DMA_IRQHandler+0x24c>)
 8001106:	fba2 2303 	umull	r2, r3, r2, r3
 800110a:	0a9b      	lsrs	r3, r3, #10
 800110c:	617b      	str	r3, [r7, #20]
 800110e:	687b      	ldr	r3, [r7, #4]
 8001110:	6d9b      	ldr	r3, [r3, #88]	@ 0x58
 8001112:	613b      	str	r3, [r7, #16]
 8001114:	693b      	ldr	r3, [r7, #16]
 8001116:	681b      	ldr	r3, [r3, #0]
 8001118:	60fb      	str	r3, [r7, #12]
 800111a:	687b      	ldr	r3, [r7, #4]
 800111c:	6ddb      	ldr	r3, [r3, #92]	@ 0x5c
 800111e:	2208      	movs	r2, #8
 8001120:	409a      	lsls	r2, r3
 8001122:	68fb      	ldr	r3, [r7, #12]
 8001124:	4013      	ands	r3, r2
 8001126:	2b00      	cmp	r3, #0
 8001128:	d01a      	beq.n	8001160 <HAL_DMA_IRQHandler+0x6c>
 800112a:	687b      	ldr	r3, [r7, #4]
 800112c:	681b      	ldr	r3, [r3, #0]
 800112e:	681b      	ldr	r3, [r3, #0]
 8001130:	f003 0304 	and.w	r3, r3, #4
 8001134:	2b00      	cmp	r3, #0
 8001136:	d013      	beq.n	8001160 <HAL_DMA_IRQHandler+0x6c>
 8001138:	687b      	ldr	r3, [r7, #4]
 800113a:	681b      	ldr	r3, [r3, #0]
 800113c:	681a      	ldr	r2, [r3, #0]
 800113e:	687b      	ldr	r3, [r7, #4]
 8001140:	681b      	ldr	r3, [r3, #0]
 8001142:	f022 0204 	bic.w	r2, r2, #4
 8001146:	601a      	str	r2, [r3, #0]
 8001148:	687b      	ldr	r3, [r7, #4]
 800114a:	6ddb      	ldr	r3, [r3, #92]	@ 0x5c
 800114c:	2208      	movs	r2, #8
 800114e:	409a      	lsls	r2, r3
 8001150:	693b      	ldr	r3, [r7, #16]
 8001152:	609a      	str	r2, [r3, #8]
 8001154:	687b      	ldr	r3, [r7, #4]
 8001156:	6d5b      	ldr	r3, [r3, #84]	@ 0x54
 8001158:	f043 0201 	orr.w	r2, r3, #1
 800115c:	687b      	ldr	r3, [r7, #4]
 800115e:	655a      	str	r2, [r3, #84]	@ 0x54
 8001160:	687b      	ldr	r3, [r7, #4]
 8001162:	6ddb      	ldr	r3, [r3, #92]	@ 0x5c
 8001164:	2201      	movs	r2, #1
 8001166:	409a      	lsls	r2, r3
 8001168:	68fb      	ldr	r3, [r7, #12]
 800116a:	4013      	ands	r3, r2
 800116c:	2b00      	cmp	r3, #0
 800116e:	d012      	beq.n	8001196 <HAL_DMA_IRQHandler+0xa2>
 8001170:	687b      	ldr	r3, [r7, #4]
 8001172:	681b      	ldr	r3, [r3, #0]
 8001174:	695b      	ldr	r3, [r3, #20]
 8001176:	f003 0380 	and.w	r3, r3, #128	@ 0x80
 800117a:	2b00      	cmp	r3, #0
 800117c:	d00b      	beq.n	8001196 <HAL_DMA_IRQHandler+0xa2>
 800117e:	687b      	ldr	r3, [r7, #4]
 8001180:	6ddb      	ldr	r3, [r3, #92]	@ 0x5c
 8001182:	2201      	movs	r2, #1
 8001184:	409a      	lsls	r2, r3
 8001186:	693b      	ldr	r3, [r7, #16]
 8001188:	609a      	str	r2, [r3, #8]
 800118a:	687b      	ldr	r3, [r7, #4]
 800118c:	6d5b      	ldr	r3, [r3, #84]	@ 0x54
 800118e:	f043 0202 	orr.w	r2, r3, #2
 8001192:	687b      	ldr	r3, [r7, #4]
 8001194:	655a      	str	r2, [r3, #84]	@ 0x54
 8001196:	687b      	ldr	r3, [r7, #4]
 8001198:	6ddb      	ldr	r3, [r3, #92]	@ 0x5c
 800119a:	2204      	movs	r2, #4
 800119c:	409a      	lsls	r2, r3
 800119e:	68fb      	ldr	r3, [r7, #12]
 80011a0:	4013      	ands	r3, r2
 80011a2:	2b00      	cmp	r3, #0
 80011a4:	d012      	beq.n	80011cc <HAL_DMA_IRQHandler+0xd8>
 80011a6:	687b      	ldr	r3, [r7, #4]
 80011a8:	681b      	ldr	r3, [r3, #0]
 80011aa:	681b      	ldr	r3, [r3, #0]
 80011ac:	f003 0302 	and.w	r3, r3, #2
 80011b0:	2b00      	cmp	r3, #0
 80011b2:	d00b      	beq.n	80011cc <HAL_DMA_IRQHandler+0xd8>
 80011b4:	687b      	ldr	r3, [r7, #4]
 80011b6:	6ddb      	ldr	r3, [r3, #92]	@ 0x5c
 80011b8:	2204      	movs	r2, #4
 80011ba:	409a      	lsls	r2, r3
 80011bc:	693b      	ldr	r3, [r7, #16]
 80011be:	609a      	str	r2, [r3, #8]
 80011c0:	687b      	ldr	r3, [r7, #4]
 80011c2:	6d5b      	ldr	r3, [r3, #84]	@ 0x54
 80011c4:	f043 0204 	orr.w	r2, r3, #4
 80011c8:	687b      	ldr	r3, [r7, #4]
 80011ca:	655a      	str	r2, [r3, #84]	@ 0x54
 80011cc:	687b      	ldr	r3, [r7, #4]
 80011ce:	6ddb      	ldr	r3, [r3, #92]	@ 0x5c
 80011d0:	2210      	movs	r2, #16
 80011d2:	409a      	lsls	r2, r3
 80011d4:	68fb      	ldr	r3, [r7, #12]
 80011d6:	4013      	ands	r3, r2
 80011d8:	2b00      	cmp	r3, #0
 80011da:	d043      	beq.n	8001264 <HAL_DMA_IRQHandler+0x170>
 80011dc:	687b      	ldr	r3, [r7, #4]
 80011de:	681b      	ldr	r3, [r3, #0]
 80011e0:	681b      	ldr	r3, [r3, #0]
 80011e2:	f003 0308 	and.w	r3, r3, #8
 80011e6:	2b00      	cmp	r3, #0
 80011e8:	d03c      	beq.n	8001264 <HAL_DMA_IRQHandler+0x170>
 80011ea:	687b      	ldr	r3, [r7, #4]
 80011ec:	6ddb      	ldr	r3, [r3, #92]	@ 0x5c
 80011ee:	2210      	movs	r2, #16
 80011f0:	409a      	lsls	r2, r3
 80011f2:	693b      	ldr	r3, [r7, #16]
 80011f4:	609a      	str	r2, [r3, #8]
 80011f6:	687b      	ldr	r3, [r7, #4]
 80011f8:	681b      	ldr	r3, [r3, #0]
 80011fa:	681b      	ldr	r3, [r3, #0]
 80011fc:	f403 2380 	and.w	r3, r3, #262144	@ 0x40000
 8001200:	2b00      	cmp	r3, #0
 8001202:	d018      	beq.n	8001236 <HAL_DMA_IRQHandler+0x142>
 8001204:	687b      	ldr	r3, [r7, #4]
 8001206:	681b      	ldr	r3, [r3, #0]
 8001208:	681b      	ldr	r3, [r3, #0]
 800120a:	f403 2300 	and.w	r3, r3, #524288	@ 0x80000
 800120e:	2b00      	cmp	r3, #0
 8001210:	d108      	bne.n	8001224 <HAL_DMA_IRQHandler+0x130>
 8001212:	687b      	ldr	r3, [r7, #4]
 8001214:	6c1b      	ldr	r3, [r3, #64]	@ 0x40
 8001216:	2b00      	cmp	r3, #0
 8001218:	d024      	beq.n	8001264 <HAL_DMA_IRQHandler+0x170>
 800121a:	687b      	ldr	r3, [r7, #4]
 800121c:	6c1b      	ldr	r3, [r3, #64]	@ 0x40
 800121e:	6878      	ldr	r0, [r7, #4]
 8001220:	4798      	blx	r3
 8001222:	e01f      	b.n	8001264 <HAL_DMA_IRQHandler+0x170>
 8001224:	687b      	ldr	r3, [r7, #4]
 8001226:	6c9b      	ldr	r3, [r3, #72]	@ 0x48
 8001228:	2b00      	cmp	r3, #0
 800122a:	d01b      	beq.n	8001264 <HAL_DMA_IRQHandler+0x170>
 800122c:	687b      	ldr	r3, [r7, #4]
 800122e:	6c9b      	ldr	r3, [r3, #72]	@ 0x48
 8001230:	6878      	ldr	r0, [r7, #4]
 8001232:	4798      	blx	r3
 8001234:	e016      	b.n	8001264 <HAL_DMA_IRQHandler+0x170>
 8001236:	687b      	ldr	r3, [r7, #4]
 8001238:	681b      	ldr	r3, [r3, #0]
 800123a:	681b      	ldr	r3, [r3, #0]
 800123c:	f403 7380 	and.w	r3, r3, #256	@ 0x100
 8001240:	2b00      	cmp	r3, #0
 8001242:	d107      	bne.n	8001254 <HAL_DMA_IRQHandler+0x160>
 8001244:	687b      	ldr	r3, [r7, #4]
 8001246:	681b      	ldr	r3, [r3, #0]
 8001248:	681a      	ldr	r2, [r3, #0]
 800124a:	687b      	ldr	r3, [r7, #4]
 800124c:	681b      	ldr	r3, [r3, #0]
 800124e:	f022 0208 	bic.w	r2, r2, #8
 8001252:	601a      	str	r2, [r3, #0]
 8001254:	687b      	ldr	r3, [r7, #4]
 8001256:	6c1b      	ldr	r3, [r3, #64]	@ 0x40
 8001258:	2b00      	cmp	r3, #0
 800125a:	d003      	beq.n	8001264 <HAL_DMA_IRQHandler+0x170>
 800125c:	687b      	ldr	r3, [r7, #4]
 800125e:	6c1b      	ldr	r3, [r3, #64]	@ 0x40
 8001260:	6878      	ldr	r0, [r7, #4]
 8001262:	4798      	blx	r3
 8001264:	687b      	ldr	r3, [r7, #4]
 8001266:	6ddb      	ldr	r3, [r3, #92]	@ 0x5c
 8001268:	2220      	movs	r2, #32
 800126a:	409a      	lsls	r2, r3
 800126c:	68fb      	ldr	r3, [r7, #12]
 800126e:	4013      	ands	r3, r2
 8001270:	2b00      	cmp	r3, #0
 8001272:	f000 808f 	beq.w	8001394 <HAL_DMA_IRQHandler+0x2a0>
 8001276:	687b      	ldr	r3, [r7, #4]
 8001278:	681b      	ldr	r3, [r3, #0]
 800127a:	681b      	ldr	r3, [r3, #0]
 800127c:	f003 0310 	and.w	r3, r3, #16
 8001280:	2b00      	cmp	r3, #0
 8001282:	f000 8087 	beq.w	8001394 <HAL_DMA_IRQHandler+0x2a0>
 8001286:	687b      	ldr	r3, [r7, #4]
 8001288:	6ddb      	ldr	r3, [r3, #92]	@ 0x5c
 800128a:	2220      	movs	r2, #32
 800128c:	409a      	lsls	r2, r3
 800128e:	693b      	ldr	r3, [r7, #16]
 8001290:	609a      	str	r2, [r3, #8]
 8001292:	687b      	ldr	r3, [r7, #4]
 8001294:	f893 3035 	ldrb.w	r3, [r3, #53]	@ 0x35
 8001298:	b2db      	uxtb	r3, r3
 800129a:	2b05      	cmp	r3, #5
 800129c:	d136      	bne.n	800130c <HAL_DMA_IRQHandler+0x218>
 800129e:	687b      	ldr	r3, [r7, #4]
 80012a0:	681b      	ldr	r3, [r3, #0]
 80012a2:	681a      	ldr	r2, [r3, #0]
 80012a4:	687b      	ldr	r3, [r7, #4]
 80012a6:	681b      	ldr	r3, [r3, #0]
 80012a8:	f022 0216 	bic.w	r2, r2, #22
 80012ac:	601a      	str	r2, [r3, #0]
 80012ae:	687b      	ldr	r3, [r7, #4]
 80012b0:	681b      	ldr	r3, [r3, #0]
 80012b2:	695a      	ldr	r2, [r3, #20]
 80012b4:	687b      	ldr	r3, [r7, #4]
 80012b6:	681b      	ldr	r3, [r3, #0]
 80012b8:	f022 0280 	bic.w	r2, r2, #128	@ 0x80
 80012bc:	615a      	str	r2, [r3, #20]
 80012be:	687b      	ldr	r3, [r7, #4]
 80012c0:	6c1b      	ldr	r3, [r3, #64]	@ 0x40
 80012c2:	2b00      	cmp	r3, #0
 80012c4:	d103      	bne.n	80012ce <HAL_DMA_IRQHandler+0x1da>
 80012c6:	687b      	ldr	r3, [r7, #4]
 80012c8:	6c9b      	ldr	r3, [r3, #72]	@ 0x48
 80012ca:	2b00      	cmp	r3, #0
 80012cc:	d007      	beq.n	80012de <HAL_DMA_IRQHandler+0x1ea>
 80012ce:	687b      	ldr	r3, [r7, #4]
 80012d0:	681b      	ldr	r3, [r3, #0]
 80012d2:	681a      	ldr	r2, [r3, #0]
 80012d4:	687b      	ldr	r3, [r7, #4]
 80012d6:	681b      	ldr	r3, [r3, #0]
 80012d8:	f022 0208 	bic.w	r2, r2, #8
 80012dc:	601a      	str	r2, [r3, #0]
 80012de:	687b      	ldr	r3, [r7, #4]
 80012e0:	6ddb      	ldr	r3, [r3, #92]	@ 0x5c
 80012e2:	223f      	movs	r2, #63	@ 0x3f
 80012e4:	409a      	lsls	r2, r3
 80012e6:	693b      	ldr	r3, [r7, #16]
 80012e8:	609a      	str	r2, [r3, #8]
 80012ea:	687b      	ldr	r3, [r7, #4]
 80012ec:	2201      	movs	r2, #1
 80012ee:	f883 2035 	strb.w	r2, [r3, #53]	@ 0x35
 80012f2:	687b      	ldr	r3, [r7, #4]
 80012f4:	2200      	movs	r2, #0
 80012f6:	f883 2034 	strb.w	r2, [r3, #52]	@ 0x34
 80012fa:	687b      	ldr	r3, [r7, #4]
 80012fc:	6d1b      	ldr	r3, [r3, #80]	@ 0x50
 80012fe:	2b00      	cmp	r3, #0
 8001300:	d07e      	beq.n	8001400 <HAL_DMA_IRQHandler+0x30c>
 8001302:	687b      	ldr	r3, [r7, #4]
 8001304:	6d1b      	ldr	r3, [r3, #80]	@ 0x50
 8001306:	6878      	ldr	r0, [r7, #4]
 8001308:	4798      	blx	r3
 800130a:	e079      	b.n	8001400 <HAL_DMA_IRQHandler+0x30c>
 800130c:	687b      	ldr	r3, [r7, #4]
 800130e:	681b      	ldr	r3, [r3, #0]
 8001310:	681b      	ldr	r3, [r3, #0]
 8001312:	f403 2380 	and.w	r3, r3, #262144	@ 0x40000
 8001316:	2b00      	cmp	r3, #0
 8001318:	d01d      	beq.n	8001356 <HAL_DMA_IRQHandler+0x262>
 800131a:	687b      	ldr	r3, [r7, #4]
 800131c:	681b      	ldr	r3, [r3, #0]
 800131e:	681b      	ldr	r3, [r3, #0]
 8001320:	f403 2300 	and.w	r3, r3, #524288	@ 0x80000
 8001324:	2b00      	cmp	r3, #0
 8001326:	d10d      	bne.n	8001344 <HAL_DMA_IRQHandler+0x250>
 8001328:	687b      	ldr	r3, [r7, #4]
 800132a:	6c5b      	ldr	r3, [r3, #68]	@ 0x44
 800132c:	2b00      	cmp	r3, #0
 800132e:	d031      	beq.n	8001394 <HAL_DMA_IRQHandler+0x2a0>
 8001330:	687b      	ldr	r3, [r7, #4]
 8001332:	6c5b      	ldr	r3, [r3, #68]	@ 0x44
 8001334:	6878      	ldr	r0, [r7, #4]
 8001336:	4798      	blx	r3
 8001338:	e02c      	b.n	8001394 <HAL_DMA_IRQHandler+0x2a0>
 800133a:	bf00      	nop
 800133c:	20000004 	.word	0x20000004
 8001340:	1b4e81b5 	.word	0x1b4e81b5
 8001344:	687b      	ldr	r3, [r7, #4]
 8001346:	6bdb      	ldr	r3, [r3, #60]	@ 0x3c
 8001348:	2b00      	cmp	r3, #0
 800134a:	d023      	beq.n	8001394 <HAL_DMA_IRQHandler+0x2a0>
 800134c:	687b      	ldr	r3, [r7, #4]
 800134e:	6bdb      	ldr	r3, [r3, #60]	@ 0x3c
 8001350:	6878      	ldr	r0, [r7, #4]
 8001352:	4798      	blx	r3
 8001354:	e01e      	b.n	8001394 <HAL_DMA_IRQHandler+0x2a0>
 8001356:	687b      	ldr	r3, [r7, #4]
 8001358:	681b      	ldr	r3, [r3, #0]
 800135a:	681b      	ldr	r3, [r3, #0]
 800135c:	f403 7380 	and.w	r3, r3, #256	@ 0x100
 8001360:	2b00      	cmp	r3, #0
 8001362:	d10f      	bne.n	8001384 <HAL_DMA_IRQHandler+0x290>
 8001364:	687b      	ldr	r3, [r7, #4]
 8001366:	681b      	ldr	r3, [r3, #0]
 8001368:	681a      	ldr	r2, [r3, #0]
 800136a:	687b      	ldr	r3, [r7, #4]
 800136c:	681b      	ldr	r3, [r3, #0]
 800136e:	f022 0210 	bic.w	r2, r2, #16
 8001372:	601a      	str	r2, [r3, #0]
 8001374:	687b      	ldr	r3, [r7, #4]
 8001376:	2201      	movs	r2, #1
 8001378:	f883 2035 	strb.w	r2, [r3, #53]	@ 0x35
 800137c:	687b      	ldr	r3, [r7, #4]
 800137e:	2200      	movs	r2, #0
 8001380:	f883 2034 	strb.w	r2, [r3, #52]	@ 0x34
 8001384:	687b      	ldr	r3, [r7, #4]
 8001386:	6bdb      	ldr	r3, [r3, #60]	@ 0x3c
 8001388:	2b00      	cmp	r3, #0
 800138a:	d003      	beq.n	8001394 <HAL_DMA_IRQHandler+0x2a0>
 800138c:	687b      	ldr	r3, [r7, #4]
 800138e:	6bdb      	ldr	r3, [r3, #60]	@ 0x3c
 8001390:	6878      	ldr	r0, [r7, #4]
 8001392:	4798      	blx	r3
 8001394:	687b      	ldr	r3, [r7, #4]
 8001396:	6d5b      	ldr	r3, [r3, #84]	@ 0x54
 8001398:	2b00      	cmp	r3, #0
 800139a:	d032      	beq.n	8001402 <HAL_DMA_IRQHandler+0x30e>
 800139c:	687b      	ldr	r3, [r7, #4]
 800139e:	6d5b      	ldr	r3, [r3, #84]	@ 0x54
 80013a0:	f003 0301 	and.w	r3, r3, #1
 80013a4:	2b00      	cmp	r3, #0
 80013a6:	d022      	beq.n	80013ee <HAL_DMA_IRQHandler+0x2fa>
 80013a8:	687b      	ldr	r3, [r7, #4]
 80013aa:	2205      	movs	r2, #5
 80013ac:	f883 2035 	strb.w	r2, [r3, #53]	@ 0x35
 80013b0:	687b      	ldr	r3, [r7, #4]
 80013b2:	681b      	ldr	r3, [r3, #0]
 80013b4:	681a      	ldr	r2, [r3, #0]
 80013b6:	687b      	ldr	r3, [r7, #4]
 80013b8:	681b      	ldr	r3, [r3, #0]
 80013ba:	f022 0201 	bic.w	r2, r2, #1
 80013be:	601a      	str	r2, [r3, #0]
 80013c0:	68bb      	ldr	r3, [r7, #8]
 80013c2:	3301      	adds	r3, #1
 80013c4:	60bb      	str	r3, [r7, #8]
 80013c6:	697a      	ldr	r2, [r7, #20]
 80013c8:	429a      	cmp	r2, r3
 80013ca:	d307      	bcc.n	80013dc <HAL_DMA_IRQHandler+0x2e8>
 80013cc:	687b      	ldr	r3, [r7, #4]
 80013ce:	681b      	ldr	r3, [r3, #0]
 80013d0:	681b      	ldr	r3, [r3, #0]
 80013d2:	f003 0301 	and.w	r3, r3, #1
 80013d6:	2b00      	cmp	r3, #0
 80013d8:	d1f2      	bne.n	80013c0 <HAL_DMA_IRQHandler+0x2cc>
 80013da:	e000      	b.n	80013de <HAL_DMA_IRQHandler+0x2ea>
 80013dc:	bf00      	nop
 80013de:	687b      	ldr	r3, [r7, #4]
 80013e0:	2201      	movs	r2, #1
 80013e2:	f883 2035 	strb.w	r2, [r3, #53]	@ 0x35
 80013e6:	687b      	ldr	r3, [r7, #4]
 80013e8:	2200      	movs	r2, #0
 80013ea:	f883 2034 	strb.w	r2, [r3, #52]	@ 0x34
 80013ee:	687b      	ldr	r3, [r7, #4]
 80013f0:	6cdb      	ldr	r3, [r3, #76]	@ 0x4c
 80013f2:	2b00      	cmp	r3, #0
 80013f4:	d005      	beq.n	8001402 <HAL_DMA_IRQHandler+0x30e>
 80013f6:	687b      	ldr	r3, [r7, #4]
 80013f8:	6cdb      	ldr	r3, [r3, #76]	@ 0x4c
 80013fa:	6878      	ldr	r0, [r7, #4]
 80013fc:	4798      	blx	r3
 80013fe:	e000      	b.n	8001402 <HAL_DMA_IRQHandler+0x30e>
 8001400:	bf00      	nop
 8001402:	3718      	adds	r7, #24
 8001404:	46bd      	mov	sp, r7
 8001406:	bd80      	pop	{r7, pc}

08001408 <DMA_SetConfig>:
 8001408:	b480      	push	{r7}
 800140a:	b085      	sub	sp, #20
 800140c:	af00      	add	r7, sp, #0
 800140e:	60f8      	str	r0, [r7, #12]
 8001410:	60b9      	str	r1, [r7, #8]
 8001412:	607a      	str	r2, [r7, #4]
 8001414:	603b      	str	r3, [r7, #0]
 8001416:	68fb      	ldr	r3, [r7, #12]
 8001418:	681b      	ldr	r3, [r3, #0]
 800141a:	681a      	ldr	r2, [r3, #0]
 800141c:	68fb      	ldr	r3, [r7, #12]
 800141e:	681b      	ldr	r3, [r3, #0]
 8001420:	f422 2280 	bic.w	r2, r2, #262144	@ 0x40000
 8001424:	601a      	str	r2, [r3, #0]
 8001426:	68fb      	ldr	r3, [r7, #12]
 8001428:	681b      	ldr	r3, [r3, #0]
 800142a:	683a      	ldr	r2, [r7, #0]
 800142c:	605a      	str	r2, [r3, #4]
 800142e:	68fb      	ldr	r3, [r7, #12]
 8001430:	689b      	ldr	r3, [r3, #8]
 8001432:	2b40      	cmp	r3, #64	@ 0x40
 8001434:	d108      	bne.n	8001448 <DMA_SetConfig+0x40>
 8001436:	68fb      	ldr	r3, [r7, #12]
 8001438:	681b      	ldr	r3, [r3, #0]
 800143a:	687a      	ldr	r2, [r7, #4]
 800143c:	609a      	str	r2, [r3, #8]
 800143e:	68fb      	ldr	r3, [r7, #12]
 8001440:	681b      	ldr	r3, [r3, #0]
 8001442:	68ba      	ldr	r2, [r7, #8]
 8001444:	60da      	str	r2, [r3, #12]
 8001446:	e007      	b.n	8001458 <DMA_SetConfig+0x50>
 8001448:	68fb      	ldr	r3, [r7, #12]
 800144a:	681b      	ldr	r3, [r3, #0]
 800144c:	68ba      	ldr	r2, [r7, #8]
 800144e:	609a      	str	r2, [r3, #8]
 8001450:	68fb      	ldr	r3, [r7, #12]
 8001452:	681b      	ldr	r3, [r3, #0]
 8001454:	687a      	ldr	r2, [r7, #4]
 8001456:	60da      	str	r2, [r3, #12]
 8001458:	bf00      	nop
 800145a:	3714      	adds	r7, #20
 800145c:	46bd      	mov	sp, r7
 800145e:	f85d 7b04 	ldr.w	r7, [sp], #4
 8001462:	4770      	bx	lr

08001464 <DMA_CalcBaseAndBitshift>:
 8001464:	b480      	push	{r7}
 8001466:	b085      	sub	sp, #20
 8001468:	af00      	add	r7, sp, #0
 800146a:	6078      	str	r0, [r7, #4]
 800146c:	687b      	ldr	r3, [r7, #4]
 800146e:	681b      	ldr	r3, [r3, #0]
 8001470:	b2db      	uxtb	r3, r3
 8001472:	3b10      	subs	r3, #16
 8001474:	4a14      	ldr	r2, [pc, #80]	@ (80014c8 <DMA_CalcBaseAndBitshift+0x64>)
 8001476:	fba2 2303 	umull	r2, r3, r2, r3
 800147a:	091b      	lsrs	r3, r3, #4
 800147c:	60fb      	str	r3, [r7, #12]
 800147e:	4a13      	ldr	r2, [pc, #76]	@ (80014cc <DMA_CalcBaseAndBitshift+0x68>)
 8001480:	68fb      	ldr	r3, [r7, #12]
 8001482:	4413      	add	r3, r2
 8001484:	781b      	ldrb	r3, [r3, #0]
 8001486:	461a      	mov	r2, r3
 8001488:	687b      	ldr	r3, [r7, #4]
 800148a:	65da      	str	r2, [r3, #92]	@ 0x5c
 800148c:	68fb      	ldr	r3, [r7, #12]
 800148e:	2b03      	cmp	r3, #3
 8001490:	d909      	bls.n	80014a6 <DMA_CalcBaseAndBitshift+0x42>
 8001492:	687b      	ldr	r3, [r7, #4]
 8001494:	681b      	ldr	r3, [r3, #0]
 8001496:	f423 737f 	bic.w	r3, r3, #1020	@ 0x3fc
 800149a:	f023 0303 	bic.w	r3, r3, #3
 800149e:	1d1a      	adds	r2, r3, #4
 80014a0:	687b      	ldr	r3, [r7, #4]
 80014a2:	659a      	str	r2, [r3, #88]	@ 0x58
 80014a4:	e007      	b.n	80014b6 <DMA_CalcBaseAndBitshift+0x52>
 80014a6:	687b      	ldr	r3, [r7, #4]
 80014a8:	681b      	ldr	r3, [r3, #0]
 80014aa:	f423 737f 	bic.w	r3, r3, #1020	@ 0x3fc
 80014ae:	f023 0303 	bic.w	r3, r3, #3
 80014b2:	687a      	ldr	r2, [r7, #4]
 80014b4:	6593      	str	r3, [r2, #88]	@ 0x58
 80014b6:	687b      	ldr	r3, [r7, #4]
 80014b8:	6d9b      	ldr	r3, [r3, #88]	@ 0x58
 80014ba:	4618      	mov	r0, r3
 80014bc:	3714      	adds	r7, #20
 80014be:	46bd      	mov	sp, r7
 80014c0:	f85d 7b04 	ldr.w	r7, [sp], #4
 80014c4:	4770      	bx	lr
 80014c6:	bf00      	nop
 80014c8:	aaaaaaab 	.word	0xaaaaaaab
 80014cc:	08003564 	.word	0x08003564

080014d0 <DMA_CheckFifoParam>:
 80014d0:	b480      	push	{r7}
 80014d2:	b085      	sub	sp, #20
 80014d4:	af00      	add	r7, sp, #0
 80014d6:	6078      	str	r0, [r7, #4]
 80014d8:	2300      	movs	r3, #0
 80014da:	73fb      	strb	r3, [r7, #15]
 80014dc:	687b      	ldr	r3, [r7, #4]
 80014de:	6a9b      	ldr	r3, [r3, #40]	@ 0x28
 80014e0:	60bb      	str	r3, [r7, #8]
 80014e2:	687b      	ldr	r3, [r7, #4]
 80014e4:	699b      	ldr	r3, [r3, #24]
 80014e6:	2b00      	cmp	r3, #0
 80014e8:	d11f      	bne.n	800152a <DMA_CheckFifoParam+0x5a>
 80014ea:	68bb      	ldr	r3, [r7, #8]
 80014ec:	2b03      	cmp	r3, #3
 80014ee:	d856      	bhi.n	800159e <DMA_CheckFifoParam+0xce>
 80014f0:	a201      	add	r2, pc, #4	@ (adr r2, 80014f8 <DMA_CheckFifoParam+0x28>)
 80014f2:	f852 f023 	ldr.w	pc, [r2, r3, lsl #2]
 80014f6:	bf00      	nop
 80014f8:	08001509 	.word	0x08001509
 80014fc:	0800151b 	.word	0x0800151b
 8001500:	08001509 	.word	0x08001509
 8001504:	0800159f 	.word	0x0800159f
 8001508:	687b      	ldr	r3, [r7, #4]
 800150a:	6adb      	ldr	r3, [r3, #44]	@ 0x2c
 800150c:	f003 7380 	and.w	r3, r3, #16777216	@ 0x1000000
 8001510:	2b00      	cmp	r3, #0
 8001512:	d046      	beq.n	80015a2 <DMA_CheckFifoParam+0xd2>
 8001514:	2301      	movs	r3, #1
 8001516:	73fb      	strb	r3, [r7, #15]
 8001518:	e043      	b.n	80015a2 <DMA_CheckFifoParam+0xd2>
 800151a:	687b      	ldr	r3, [r7, #4]
 800151c:	6adb      	ldr	r3, [r3, #44]	@ 0x2c
 800151e:	f1b3 7fc0 	cmp.w	r3, #25165824	@ 0x1800000
 8001522:	d140      	bne.n	80015a6 <DMA_CheckFifoParam+0xd6>
 8001524:	2301      	movs	r3, #1
 8001526:	73fb      	strb	r3, [r7, #15]
 8001528:	e03d      	b.n	80015a6 <DMA_CheckFifoParam+0xd6>
 800152a:	687b      	ldr	r3, [r7, #4]
 800152c:	699b      	ldr	r3, [r3, #24]
 800152e:	f5b3 5f00 	cmp.w	r3, #8192	@ 0x2000
 8001532:	d121      	bne.n	8001578 <DMA_CheckFifoParam+0xa8>
 8001534:	68bb      	ldr	r3, [r7, #8]
 8001536:	2b03      	cmp	r3, #3
 8001538:	d837      	bhi.n	80015aa <DMA_CheckFifoParam+0xda>
 800153a:	a201      	add	r2, pc, #4	@ (adr r2, 8001540 <DMA_CheckFifoParam+0x70>)
 800153c:	f852 f023 	ldr.w	pc, [r2, r3, lsl #2]
 8001540:	08001551 	.word	0x08001551
 8001544:	08001557 	.word	0x08001557
 8001548:	08001551 	.word	0x08001551
 800154c:	08001569 	.word	0x08001569
 8001550:	2301      	movs	r3, #1
 8001552:	73fb      	strb	r3, [r7, #15]
 8001554:	e030      	b.n	80015b8 <DMA_CheckFifoParam+0xe8>
 8001556:	687b      	ldr	r3, [r7, #4]
 8001558:	6adb      	ldr	r3, [r3, #44]	@ 0x2c
 800155a:	f003 7380 	and.w	r3, r3, #16777216	@ 0x1000000
 800155e:	2b00      	cmp	r3, #0
 8001560:	d025      	beq.n	80015ae <DMA_CheckFifoParam+0xde>
 8001562:	2301      	movs	r3, #1
 8001564:	73fb      	strb	r3, [r7, #15]
 8001566:	e022      	b.n	80015ae <DMA_CheckFifoParam+0xde>
 8001568:	687b      	ldr	r3, [r7, #4]
 800156a:	6adb      	ldr	r3, [r3, #44]	@ 0x2c
 800156c:	f1b3 7fc0 	cmp.w	r3, #25165824	@ 0x1800000
 8001570:	d11f      	bne.n	80015b2 <DMA_CheckFifoParam+0xe2>
 8001572:	2301      	movs	r3, #1
 8001574:	73fb      	strb	r3, [r7, #15]
 8001576:	e01c      	b.n	80015b2 <DMA_CheckFifoParam+0xe2>
 8001578:	68bb      	ldr	r3, [r7, #8]
 800157a:	2b02      	cmp	r3, #2
 800157c:	d903      	bls.n	8001586 <DMA_CheckFifoParam+0xb6>
 800157e:	68bb      	ldr	r3, [r7, #8]
 8001580:	2b03      	cmp	r3, #3
 8001582:	d003      	beq.n	800158c <DMA_CheckFifoParam+0xbc>
 8001584:	e018      	b.n	80015b8 <DMA_CheckFifoParam+0xe8>
 8001586:	2301      	movs	r3, #1
 8001588:	73fb      	strb	r3, [r7, #15]
 800158a:	e015      	b.n	80015b8 <DMA_CheckFifoParam+0xe8>
 800158c:	687b      	ldr	r3, [r7, #4]
 800158e:	6adb      	ldr	r3, [r3, #44]	@ 0x2c
 8001590:	f003 7380 	and.w	r3, r3, #16777216	@ 0x1000000
 8001594:	2b00      	cmp	r3, #0
 8001596:	d00e      	beq.n	80015b6 <DMA_CheckFifoParam+0xe6>
 8001598:	2301      	movs	r3, #1
 800159a:	73fb      	strb	r3, [r7, #15]
 800159c:	e00b      	b.n	80015b6 <DMA_CheckFifoParam+0xe6>
 800159e:	bf00      	nop
 80015a0:	e00a      	b.n	80015b8 <DMA_CheckFifoParam+0xe8>
 80015a2:	bf00      	nop
 80015a4:	e008      	b.n	80015b8 <DMA_CheckFifoParam+0xe8>
 80015a6:	bf00      	nop
 80015a8:	e006      	b.n	80015b8 <DMA_CheckFifoParam+0xe8>
 80015aa:	bf00      	nop
 80015ac:	e004      	b.n	80015b8 <DMA_CheckFifoParam+0xe8>
 80015ae:	bf00      	nop
 80015b0:	e002      	b.n	80015b8 <DMA_CheckFifoParam+0xe8>
 80015b2:	bf00      	nop
 80015b4:	e000      	b.n	80015b8 <DMA_CheckFifoParam+0xe8>
 80015b6:	bf00      	nop
 80015b8:	7bfb      	ldrb	r3, [r7, #15]
 80015ba:	4618      	mov	r0, r3
 80015bc:	3714      	adds	r7, #20
 80015be:	46bd      	mov	sp, r7
 80015c0:	f85d 7b04 	ldr.w	r7, [sp], #4
 80015c4:	4770      	bx	lr
 80015c6:	bf00      	nop

080015c8 <HAL_GPIO_Init>:
 80015c8:	b480      	push	{r7}
 80015ca:	b089      	sub	sp, #36	@ 0x24
 80015cc:	af00      	add	r7, sp, #0
 80015ce:	6078      	str	r0, [r7, #4]
 80015d0:	6039      	str	r1, [r7, #0]
 80015d2:	2300      	movs	r3, #0
 80015d4:	617b      	str	r3, [r7, #20]
 80015d6:	2300      	movs	r3, #0
 80015d8:	613b      	str	r3, [r7, #16]
 80015da:	2300      	movs	r3, #0
 80015dc:	61bb      	str	r3, [r7, #24]
 80015de:	2300      	movs	r3, #0
 80015e0:	61fb      	str	r3, [r7, #28]
 80015e2:	e16b      	b.n	80018bc <HAL_GPIO_Init+0x2f4>
 80015e4:	2201      	movs	r2, #1
 80015e6:	69fb      	ldr	r3, [r7, #28]
 80015e8:	fa02 f303 	lsl.w	r3, r2, r3
 80015ec:	617b      	str	r3, [r7, #20]
 80015ee:	683b      	ldr	r3, [r7, #0]
 80015f0:	681b      	ldr	r3, [r3, #0]
 80015f2:	697a      	ldr	r2, [r7, #20]
 80015f4:	4013      	ands	r3, r2
 80015f6:	613b      	str	r3, [r7, #16]
 80015f8:	693a      	ldr	r2, [r7, #16]
 80015fa:	697b      	ldr	r3, [r7, #20]
 80015fc:	429a      	cmp	r2, r3
 80015fe:	f040 815a 	bne.w	80018b6 <HAL_GPIO_Init+0x2ee>
 8001602:	683b      	ldr	r3, [r7, #0]
 8001604:	685b      	ldr	r3, [r3, #4]
 8001606:	f003 0303 	and.w	r3, r3, #3
 800160a:	2b01      	cmp	r3, #1
 800160c:	d005      	beq.n	800161a <HAL_GPIO_Init+0x52>
 800160e:	683b      	ldr	r3, [r7, #0]
 8001610:	685b      	ldr	r3, [r3, #4]
 8001612:	f003 0303 	and.w	r3, r3, #3
 8001616:	2b02      	cmp	r3, #2
 8001618:	d130      	bne.n	800167c <HAL_GPIO_Init+0xb4>
 800161a:	687b      	ldr	r3, [r7, #4]
 800161c:	689b      	ldr	r3, [r3, #8]
 800161e:	61bb      	str	r3, [r7, #24]
 8001620:	69fb      	ldr	r3, [r7, #28]
 8001622:	005b      	lsls	r3, r3, #1
 8001624:	2203      	movs	r2, #3
 8001626:	fa02 f303 	lsl.w	r3, r2, r3
 800162a:	43db      	mvns	r3, r3
 800162c:	69ba      	ldr	r2, [r7, #24]
 800162e:	4013      	ands	r3, r2
 8001630:	61bb      	str	r3, [r7, #24]
 8001632:	683b      	ldr	r3, [r7, #0]
 8001634:	68da      	ldr	r2, [r3, #12]
 8001636:	69fb      	ldr	r3, [r7, #28]
 8001638:	005b      	lsls	r3, r3, #1
 800163a:	fa02 f303 	lsl.w	r3, r2, r3
 800163e:	69ba      	ldr	r2, [r7, #24]
 8001640:	4313      	orrs	r3, r2
 8001642:	61bb      	str	r3, [r7, #24]
 8001644:	687b      	ldr	r3, [r7, #4]
 8001646:	69ba      	ldr	r2, [r7, #24]
 8001648:	609a      	str	r2, [r3, #8]
 800164a:	687b      	ldr	r3, [r7, #4]
 800164c:	685b      	ldr	r3, [r3, #4]
 800164e:	61bb      	str	r3, [r7, #24]
 8001650:	2201      	movs	r2, #1
 8001652:	69fb      	ldr	r3, [r7, #28]
 8001654:	fa02 f303 	lsl.w	r3, r2, r3
 8001658:	43db      	mvns	r3, r3
 800165a:	69ba      	ldr	r2, [r7, #24]
 800165c:	4013      	ands	r3, r2
 800165e:	61bb      	str	r3, [r7, #24]
 8001660:	683b      	ldr	r3, [r7, #0]
 8001662:	685b      	ldr	r3, [r3, #4]
 8001664:	091b      	lsrs	r3, r3, #4
 8001666:	f003 0201 	and.w	r2, r3, #1
 800166a:	69fb      	ldr	r3, [r7, #28]
 800166c:	fa02 f303 	lsl.w	r3, r2, r3
 8001670:	69ba      	ldr	r2, [r7, #24]
 8001672:	4313      	orrs	r3, r2
 8001674:	61bb      	str	r3, [r7, #24]
 8001676:	687b      	ldr	r3, [r7, #4]
 8001678:	69ba      	ldr	r2, [r7, #24]
 800167a:	605a      	str	r2, [r3, #4]
 800167c:	683b      	ldr	r3, [r7, #0]
 800167e:	685b      	ldr	r3, [r3, #4]
 8001680:	f003 0303 	and.w	r3, r3, #3
 8001684:	2b03      	cmp	r3, #3
 8001686:	d017      	beq.n	80016b8 <HAL_GPIO_Init+0xf0>
 8001688:	687b      	ldr	r3, [r7, #4]
 800168a:	68db      	ldr	r3, [r3, #12]
 800168c:	61bb      	str	r3, [r7, #24]
 800168e:	69fb      	ldr	r3, [r7, #28]
 8001690:	005b      	lsls	r3, r3, #1
 8001692:	2203      	movs	r2, #3
 8001694:	fa02 f303 	lsl.w	r3, r2, r3
 8001698:	43db      	mvns	r3, r3
 800169a:	69ba      	ldr	r2, [r7, #24]
 800169c:	4013      	ands	r3, r2
 800169e:	61bb      	str	r3, [r7, #24]
 80016a0:	683b      	ldr	r3, [r7, #0]
 80016a2:	689a      	ldr	r2, [r3, #8]
 80016a4:	69fb      	ldr	r3, [r7, #28]
 80016a6:	005b      	lsls	r3, r3, #1
 80016a8:	fa02 f303 	lsl.w	r3, r2, r3
 80016ac:	69ba      	ldr	r2, [r7, #24]
 80016ae:	4313      	orrs	r3, r2
 80016b0:	61bb      	str	r3, [r7, #24]
 80016b2:	687b      	ldr	r3, [r7, #4]
 80016b4:	69ba      	ldr	r2, [r7, #24]
 80016b6:	60da      	str	r2, [r3, #12]
 80016b8:	683b      	ldr	r3, [r7, #0]
 80016ba:	685b      	ldr	r3, [r3, #4]
 80016bc:	f003 0303 	and.w	r3, r3, #3
 80016c0:	2b02      	cmp	r3, #2
 80016c2:	d123      	bne.n	800170c <HAL_GPIO_Init+0x144>
 80016c4:	69fb      	ldr	r3, [r7, #28]
 80016c6:	08da      	lsrs	r2, r3, #3
 80016c8:	687b      	ldr	r3, [r7, #4]
 80016ca:	3208      	adds	r2, #8
 80016cc:	f853 3022 	ldr.w	r3, [r3, r2, lsl #2]
 80016d0:	61bb      	str	r3, [r7, #24]
 80016d2:	69fb      	ldr	r3, [r7, #28]
 80016d4:	f003 0307 	and.w	r3, r3, #7
 80016d8:	009b      	lsls	r3, r3, #2
 80016da:	220f      	movs	r2, #15
 80016dc:	fa02 f303 	lsl.w	r3, r2, r3
 80016e0:	43db      	mvns	r3, r3
 80016e2:	69ba      	ldr	r2, [r7, #24]
 80016e4:	4013      	ands	r3, r2
 80016e6:	61bb      	str	r3, [r7, #24]
 80016e8:	683b      	ldr	r3, [r7, #0]
 80016ea:	691a      	ldr	r2, [r3, #16]
 80016ec:	69fb      	ldr	r3, [r7, #28]
 80016ee:	f003 0307 	and.w	r3, r3, #7
 80016f2:	009b      	lsls	r3, r3, #2
 80016f4:	fa02 f303 	lsl.w	r3, r2, r3
 80016f8:	69ba      	ldr	r2, [r7, #24]
 80016fa:	4313      	orrs	r3, r2
 80016fc:	61bb      	str	r3, [r7, #24]
 80016fe:	69fb      	ldr	r3, [r7, #28]
 8001700:	08da      	lsrs	r2, r3, #3
 8001702:	687b      	ldr	r3, [r7, #4]
 8001704:	3208      	adds	r2, #8
 8001706:	69b9      	ldr	r1, [r7, #24]
 8001708:	f843 1022 	str.w	r1, [r3, r2, lsl #2]
 800170c:	687b      	ldr	r3, [r7, #4]
 800170e:	681b      	ldr	r3, [r3, #0]
 8001710:	61bb      	str	r3, [r7, #24]
 8001712:	69fb      	ldr	r3, [r7, #28]
 8001714:	005b      	lsls	r3, r3, #1
 8001716:	2203      	movs	r2, #3
 8001718:	fa02 f303 	lsl.w	r3, r2, r3
 800171c:	43db      	mvns	r3, r3
 800171e:	69ba      	ldr	r2, [r7, #24]
 8001720:	4013      	ands	r3, r2
 8001722:	61bb      	str	r3, [r7, #24]
 8001724:	683b      	ldr	r3, [r7, #0]
 8001726:	685b      	ldr	r3, [r3, #4]
 8001728:	f003 0203 	and.w	r2, r3, #3
 800172c:	69fb      	ldr	r3, [r7, #28]
 800172e:	005b      	lsls	r3, r3, #1
 8001730:	fa02 f303 	lsl.w	r3, r2, r3
 8001734:	69ba      	ldr	r2, [r7, #24]
 8001736:	4313      	orrs	r3, r2
 8001738:	61bb      	str	r3, [r7, #24]
 800173a:	687b      	ldr	r3, [r7, #4]
 800173c:	69ba      	ldr	r2, [r7, #24]
 800173e:	601a      	str	r2, [r3, #0]
 8001740:	683b      	ldr	r3, [r7, #0]
 8001742:	685b      	ldr	r3, [r3, #4]
 8001744:	f403 3340 	and.w	r3, r3, #196608	@ 0x30000
 8001748:	2b00      	cmp	r3, #0
 800174a:	f000 80b4 	beq.w	80018b6 <HAL_GPIO_Init+0x2ee>
 800174e:	2300      	movs	r3, #0
 8001750:	60fb      	str	r3, [r7, #12]
 8001752:	4b60      	ldr	r3, [pc, #384]	@ (80018d4 <HAL_GPIO_Init+0x30c>)
 8001754:	6c5b      	ldr	r3, [r3, #68]	@ 0x44
 8001756:	4a5f      	ldr	r2, [pc, #380]	@ (80018d4 <HAL_GPIO_Init+0x30c>)
 8001758:	f443 4380 	orr.w	r3, r3, #16384	@ 0x4000
 800175c:	6453      	str	r3, [r2, #68]	@ 0x44
 800175e:	4b5d      	ldr	r3, [pc, #372]	@ (80018d4 <HAL_GPIO_Init+0x30c>)
 8001760:	6c5b      	ldr	r3, [r3, #68]	@ 0x44
 8001762:	f403 4380 	and.w	r3, r3, #16384	@ 0x4000
 8001766:	60fb      	str	r3, [r7, #12]
 8001768:	68fb      	ldr	r3, [r7, #12]
 800176a:	4a5b      	ldr	r2, [pc, #364]	@ (80018d8 <HAL_GPIO_Init+0x310>)
 800176c:	69fb      	ldr	r3, [r7, #28]
 800176e:	089b      	lsrs	r3, r3, #2
 8001770:	3302      	adds	r3, #2
 8001772:	f852 3023 	ldr.w	r3, [r2, r3, lsl #2]
 8001776:	61bb      	str	r3, [r7, #24]
 8001778:	69fb      	ldr	r3, [r7, #28]
 800177a:	f003 0303 	and.w	r3, r3, #3
 800177e:	009b      	lsls	r3, r3, #2
 8001780:	220f      	movs	r2, #15
 8001782:	fa02 f303 	lsl.w	r3, r2, r3
 8001786:	43db      	mvns	r3, r3
 8001788:	69ba      	ldr	r2, [r7, #24]
 800178a:	4013      	ands	r3, r2
 800178c:	61bb      	str	r3, [r7, #24]
 800178e:	687b      	ldr	r3, [r7, #4]
 8001790:	4a52      	ldr	r2, [pc, #328]	@ (80018dc <HAL_GPIO_Init+0x314>)
 8001792:	4293      	cmp	r3, r2
 8001794:	d02b      	beq.n	80017ee <HAL_GPIO_Init+0x226>
 8001796:	687b      	ldr	r3, [r7, #4]
 8001798:	4a51      	ldr	r2, [pc, #324]	@ (80018e0 <HAL_GPIO_Init+0x318>)
 800179a:	4293      	cmp	r3, r2
 800179c:	d025      	beq.n	80017ea <HAL_GPIO_Init+0x222>
 800179e:	687b      	ldr	r3, [r7, #4]
 80017a0:	4a50      	ldr	r2, [pc, #320]	@ (80018e4 <HAL_GPIO_Init+0x31c>)
 80017a2:	4293      	cmp	r3, r2
 80017a4:	d01f      	beq.n	80017e6 <HAL_GPIO_Init+0x21e>
 80017a6:	687b      	ldr	r3, [r7, #4]
 80017a8:	4a4f      	ldr	r2, [pc, #316]	@ (80018e8 <HAL_GPIO_Init+0x320>)
 80017aa:	4293      	cmp	r3, r2
 80017ac:	d019      	beq.n	80017e2 <HAL_GPIO_Init+0x21a>
 80017ae:	687b      	ldr	r3, [r7, #4]
 80017b0:	4a4e      	ldr	r2, [pc, #312]	@ (80018ec <HAL_GPIO_Init+0x324>)
 80017b2:	4293      	cmp	r3, r2
 80017b4:	d013      	beq.n	80017de <HAL_GPIO_Init+0x216>
 80017b6:	687b      	ldr	r3, [r7, #4]
 80017b8:	4a4d      	ldr	r2, [pc, #308]	@ (80018f0 <HAL_GPIO_Init+0x328>)
 80017ba:	4293      	cmp	r3, r2
 80017bc:	d00d      	beq.n	80017da <HAL_GPIO_Init+0x212>
 80017be:	687b      	ldr	r3, [r7, #4]
 80017c0:	4a4c      	ldr	r2, [pc, #304]	@ (80018f4 <HAL_GPIO_Init+0x32c>)
 80017c2:	4293      	cmp	r3, r2
 80017c4:	d007      	beq.n	80017d6 <HAL_GPIO_Init+0x20e>
 80017c6:	687b      	ldr	r3, [r7, #4]
 80017c8:	4a4b      	ldr	r2, [pc, #300]	@ (80018f8 <HAL_GPIO_Init+0x330>)
 80017ca:	4293      	cmp	r3, r2
 80017cc:	d101      	bne.n	80017d2 <HAL_GPIO_Init+0x20a>
 80017ce:	2307      	movs	r3, #7
 80017d0:	e00e      	b.n	80017f0 <HAL_GPIO_Init+0x228>
 80017d2:	2308      	movs	r3, #8
 80017d4:	e00c      	b.n	80017f0 <HAL_GPIO_Init+0x228>
 80017d6:	2306      	movs	r3, #6
 80017d8:	e00a      	b.n	80017f0 <HAL_GPIO_Init+0x228>
 80017da:	2305      	movs	r3, #5
 80017dc:	e008      	b.n	80017f0 <HAL_GPIO_Init+0x228>
 80017de:	2304      	movs	r3, #4
 80017e0:	e006      	b.n	80017f0 <HAL_GPIO_Init+0x228>
 80017e2:	2303      	movs	r3, #3
 80017e4:	e004      	b.n	80017f0 <HAL_GPIO_Init+0x228>
 80017e6:	2302      	movs	r3, #2
 80017e8:	e002      	b.n	80017f0 <HAL_GPIO_Init+0x228>
 80017ea:	2301      	movs	r3, #1
 80017ec:	e000      	b.n	80017f0 <HAL_GPIO_Init+0x228>
 80017ee:	2300      	movs	r3, #0
 80017f0:	69fa      	ldr	r2, [r7, #28]
 80017f2:	f002 0203 	and.w	r2, r2, #3
 80017f6:	0092      	lsls	r2, r2, #2
 80017f8:	4093      	lsls	r3, r2
 80017fa:	69ba      	ldr	r2, [r7, #24]
 80017fc:	4313      	orrs	r3, r2
 80017fe:	61bb      	str	r3, [r7, #24]
 8001800:	4935      	ldr	r1, [pc, #212]	@ (80018d8 <HAL_GPIO_Init+0x310>)
 8001802:	69fb      	ldr	r3, [r7, #28]
 8001804:	089b      	lsrs	r3, r3, #2
 8001806:	3302      	adds	r3, #2
 8001808:	69ba      	ldr	r2, [r7, #24]
 800180a:	f841 2023 	str.w	r2, [r1, r3, lsl #2]
 800180e:	4b3b      	ldr	r3, [pc, #236]	@ (80018fc <HAL_GPIO_Init+0x334>)
 8001810:	689b      	ldr	r3, [r3, #8]
 8001812:	61bb      	str	r3, [r7, #24]
 8001814:	693b      	ldr	r3, [r7, #16]
 8001816:	43db      	mvns	r3, r3
 8001818:	69ba      	ldr	r2, [r7, #24]
 800181a:	4013      	ands	r3, r2
 800181c:	61bb      	str	r3, [r7, #24]
 800181e:	683b      	ldr	r3, [r7, #0]
 8001820:	685b      	ldr	r3, [r3, #4]
 8001822:	f403 1380 	and.w	r3, r3, #1048576	@ 0x100000
 8001826:	2b00      	cmp	r3, #0
 8001828:	d003      	beq.n	8001832 <HAL_GPIO_Init+0x26a>
 800182a:	69ba      	ldr	r2, [r7, #24]
 800182c:	693b      	ldr	r3, [r7, #16]
 800182e:	4313      	orrs	r3, r2
 8001830:	61bb      	str	r3, [r7, #24]
 8001832:	4a32      	ldr	r2, [pc, #200]	@ (80018fc <HAL_GPIO_Init+0x334>)
 8001834:	69bb      	ldr	r3, [r7, #24]
 8001836:	6093      	str	r3, [r2, #8]
 8001838:	4b30      	ldr	r3, [pc, #192]	@ (80018fc <HAL_GPIO_Init+0x334>)
 800183a:	68db      	ldr	r3, [r3, #12]
 800183c:	61bb      	str	r3, [r7, #24]
 800183e:	693b      	ldr	r3, [r7, #16]
 8001840:	43db      	mvns	r3, r3
 8001842:	69ba      	ldr	r2, [r7, #24]
 8001844:	4013      	ands	r3, r2
 8001846:	61bb      	str	r3, [r7, #24]
 8001848:	683b      	ldr	r3, [r7, #0]
 800184a:	685b      	ldr	r3, [r3, #4]
 800184c:	f403 1300 	and.w	r3, r3, #2097152	@ 0x200000
 8001850:	2b00      	cmp	r3, #0
 8001852:	d003      	beq.n	800185c <HAL_GPIO_Init+0x294>
 8001854:	69ba      	ldr	r2, [r7, #24]
 8001856:	693b      	ldr	r3, [r7, #16]
 8001858:	4313      	orrs	r3, r2
 800185a:	61bb      	str	r3, [r7, #24]
 800185c:	4a27      	ldr	r2, [pc, #156]	@ (80018fc <HAL_GPIO_Init+0x334>)
 800185e:	69bb      	ldr	r3, [r7, #24]
 8001860:	60d3      	str	r3, [r2, #12]
 8001862:	4b26      	ldr	r3, [pc, #152]	@ (80018fc <HAL_GPIO_Init+0x334>)
 8001864:	685b      	ldr	r3, [r3, #4]
 8001866:	61bb      	str	r3, [r7, #24]
 8001868:	693b      	ldr	r3, [r7, #16]
 800186a:	43db      	mvns	r3, r3
 800186c:	69ba      	ldr	r2, [r7, #24]
 800186e:	4013      	ands	r3, r2
 8001870:	61bb      	str	r3, [r7, #24]
 8001872:	683b      	ldr	r3, [r7, #0]
 8001874:	685b      	ldr	r3, [r3, #4]
 8001876:	f403 3300 	and.w	r3, r3, #131072	@ 0x20000
 800187a:	2b00      	cmp	r3, #0
 800187c:	d003      	beq.n	8001886 <HAL_GPIO_Init+0x2be>
 800187e:	69ba      	ldr	r2, [r7, #24]
 8001880:	693b      	ldr	r3, [r7, #16]
 8001882:	4313      	orrs	r3, r2
 8001884:	61bb      	str	r3, [r7, #24]
 8001886:	4a1d      	ldr	r2, [pc, #116]	@ (80018fc <HAL_GPIO_Init+0x334>)
 8001888:	69bb      	ldr	r3, [r7, #24]
 800188a:	6053      	str	r3, [r2, #4]
 800188c:	4b1b      	ldr	r3, [pc, #108]	@ (80018fc <HAL_GPIO_Init+0x334>)
 800188e:	681b      	ldr	r3, [r3, #0]
 8001890:	61bb      	str	r3, [r7, #24]
 8001892:	693b      	ldr	r3, [r7, #16]
 8001894:	43db      	mvns	r3, r3
 8001896:	69ba      	ldr	r2, [r7, #24]
 8001898:	4013      	ands	r3, r2
 800189a:	61bb      	str	r3, [r7, #24]
 800189c:	683b      	ldr	r3, [r7, #0]
 800189e:	685b      	ldr	r3, [r3, #4]
 80018a0:	f403 3380 	and.w	r3, r3, #65536	@ 0x10000
 80018a4:	2b00      	cmp	r3, #0
 80018a6:	d003      	beq.n	80018b0 <HAL_GPIO_Init+0x2e8>
 80018a8:	69ba      	ldr	r2, [r7, #24]
 80018aa:	693b      	ldr	r3, [r7, #16]
 80018ac:	4313      	orrs	r3, r2
 80018ae:	61bb      	str	r3, [r7, #24]
 80018b0:	4a12      	ldr	r2, [pc, #72]	@ (80018fc <HAL_GPIO_Init+0x334>)
 80018b2:	69bb      	ldr	r3, [r7, #24]
 80018b4:	6013      	str	r3, [r2, #0]
 80018b6:	69fb      	ldr	r3, [r7, #28]
 80018b8:	3301      	adds	r3, #1
 80018ba:	61fb      	str	r3, [r7, #28]
 80018bc:	69fb      	ldr	r3, [r7, #28]
 80018be:	2b0f      	cmp	r3, #15
 80018c0:	f67f ae90 	bls.w	80015e4 <HAL_GPIO_Init+0x1c>
 80018c4:	bf00      	nop
 80018c6:	bf00      	nop
 80018c8:	3724      	adds	r7, #36	@ 0x24
 80018ca:	46bd      	mov	sp, r7
 80018cc:	f85d 7b04 	ldr.w	r7, [sp], #4
 80018d0:	4770      	bx	lr
 80018d2:	bf00      	nop
 80018d4:	40023800 	.word	0x40023800
 80018d8:	40013800 	.word	0x40013800
 80018dc:	40020000 	.word	0x40020000
 80018e0:	40020400 	.word	0x40020400
 80018e4:	40020800 	.word	0x40020800
 80018e8:	40020c00 	.word	0x40020c00
 80018ec:	40021000 	.word	0x40021000
 80018f0:	40021400 	.word	0x40021400
 80018f4:	40021800 	.word	0x40021800
 80018f8:	40021c00 	.word	0x40021c00
 80018fc:	40013c00 	.word	0x40013c00

08001900 <HAL_RCC_OscConfig>:
 8001900:	b580      	push	{r7, lr}
 8001902:	b086      	sub	sp, #24
 8001904:	af00      	add	r7, sp, #0
 8001906:	6078      	str	r0, [r7, #4]
 8001908:	687b      	ldr	r3, [r7, #4]
 800190a:	2b00      	cmp	r3, #0
 800190c:	d101      	bne.n	8001912 <HAL_RCC_OscConfig+0x12>
 800190e:	2301      	movs	r3, #1
 8001910:	e267      	b.n	8001de2 <HAL_RCC_OscConfig+0x4e2>
 8001912:	687b      	ldr	r3, [r7, #4]
 8001914:	681b      	ldr	r3, [r3, #0]
 8001916:	f003 0301 	and.w	r3, r3, #1
 800191a:	2b00      	cmp	r3, #0
 800191c:	d075      	beq.n	8001a0a <HAL_RCC_OscConfig+0x10a>
 800191e:	4b88      	ldr	r3, [pc, #544]	@ (8001b40 <HAL_RCC_OscConfig+0x240>)
 8001920:	689b      	ldr	r3, [r3, #8]
 8001922:	f003 030c 	and.w	r3, r3, #12
 8001926:	2b04      	cmp	r3, #4
 8001928:	d00c      	beq.n	8001944 <HAL_RCC_OscConfig+0x44>
 800192a:	4b85      	ldr	r3, [pc, #532]	@ (8001b40 <HAL_RCC_OscConfig+0x240>)
 800192c:	689b      	ldr	r3, [r3, #8]
 800192e:	f003 030c 	and.w	r3, r3, #12
 8001932:	2b08      	cmp	r3, #8
 8001934:	d112      	bne.n	800195c <HAL_RCC_OscConfig+0x5c>
 8001936:	4b82      	ldr	r3, [pc, #520]	@ (8001b40 <HAL_RCC_OscConfig+0x240>)
 8001938:	685b      	ldr	r3, [r3, #4]
 800193a:	f403 0380 	and.w	r3, r3, #4194304	@ 0x400000
 800193e:	f5b3 0f80 	cmp.w	r3, #4194304	@ 0x400000
 8001942:	d10b      	bne.n	800195c <HAL_RCC_OscConfig+0x5c>
 8001944:	4b7e      	ldr	r3, [pc, #504]	@ (8001b40 <HAL_RCC_OscConfig+0x240>)
 8001946:	681b      	ldr	r3, [r3, #0]
 8001948:	f403 3300 	and.w	r3, r3, #131072	@ 0x20000
 800194c:	2b00      	cmp	r3, #0
 800194e:	d05b      	beq.n	8001a08 <HAL_RCC_OscConfig+0x108>
 8001950:	687b      	ldr	r3, [r7, #4]
 8001952:	685b      	ldr	r3, [r3, #4]
 8001954:	2b00      	cmp	r3, #0
 8001956:	d157      	bne.n	8001a08 <HAL_RCC_OscConfig+0x108>
 8001958:	2301      	movs	r3, #1
 800195a:	e242      	b.n	8001de2 <HAL_RCC_OscConfig+0x4e2>
 800195c:	687b      	ldr	r3, [r7, #4]
 800195e:	685b      	ldr	r3, [r3, #4]
 8001960:	f5b3 3f80 	cmp.w	r3, #65536	@ 0x10000
 8001964:	d106      	bne.n	8001974 <HAL_RCC_OscConfig+0x74>
 8001966:	4b76      	ldr	r3, [pc, #472]	@ (8001b40 <HAL_RCC_OscConfig+0x240>)
 8001968:	681b      	ldr	r3, [r3, #0]
 800196a:	4a75      	ldr	r2, [pc, #468]	@ (8001b40 <HAL_RCC_OscConfig+0x240>)
 800196c:	f443 3380 	orr.w	r3, r3, #65536	@ 0x10000
 8001970:	6013      	str	r3, [r2, #0]
 8001972:	e01d      	b.n	80019b0 <HAL_RCC_OscConfig+0xb0>
 8001974:	687b      	ldr	r3, [r7, #4]
 8001976:	685b      	ldr	r3, [r3, #4]
 8001978:	f5b3 2fa0 	cmp.w	r3, #327680	@ 0x50000
 800197c:	d10c      	bne.n	8001998 <HAL_RCC_OscConfig+0x98>
 800197e:	4b70      	ldr	r3, [pc, #448]	@ (8001b40 <HAL_RCC_OscConfig+0x240>)
 8001980:	681b      	ldr	r3, [r3, #0]
 8001982:	4a6f      	ldr	r2, [pc, #444]	@ (8001b40 <HAL_RCC_OscConfig+0x240>)
 8001984:	f443 2380 	orr.w	r3, r3, #262144	@ 0x40000
 8001988:	6013      	str	r3, [r2, #0]
 800198a:	4b6d      	ldr	r3, [pc, #436]	@ (8001b40 <HAL_RCC_OscConfig+0x240>)
 800198c:	681b      	ldr	r3, [r3, #0]
 800198e:	4a6c      	ldr	r2, [pc, #432]	@ (8001b40 <HAL_RCC_OscConfig+0x240>)
 8001990:	f443 3380 	orr.w	r3, r3, #65536	@ 0x10000
 8001994:	6013      	str	r3, [r2, #0]
 8001996:	e00b      	b.n	80019b0 <HAL_RCC_OscConfig+0xb0>
 8001998:	4b69      	ldr	r3, [pc, #420]	@ (8001b40 <HAL_RCC_OscConfig+0x240>)
 800199a:	681b      	ldr	r3, [r3, #0]
 800199c:	4a68      	ldr	r2, [pc, #416]	@ (8001b40 <HAL_RCC_OscConfig+0x240>)
 800199e:	f423 3380 	bic.w	r3, r3, #65536	@ 0x10000
 80019a2:	6013      	str	r3, [r2, #0]
 80019a4:	4b66      	ldr	r3, [pc, #408]	@ (8001b40 <HAL_RCC_OscConfig+0x240>)
 80019a6:	681b      	ldr	r3, [r3, #0]
 80019a8:	4a65      	ldr	r2, [pc, #404]	@ (8001b40 <HAL_RCC_OscConfig+0x240>)
 80019aa:	f423 2380 	bic.w	r3, r3, #262144	@ 0x40000
 80019ae:	6013      	str	r3, [r2, #0]
 80019b0:	687b      	ldr	r3, [r7, #4]
 80019b2:	685b      	ldr	r3, [r3, #4]
 80019b4:	2b00      	cmp	r3, #0
 80019b6:	d013      	beq.n	80019e0 <HAL_RCC_OscConfig+0xe0>
 80019b8:	f7ff f8e6 	bl	8000b88 <HAL_GetTick>
 80019bc:	6138      	str	r0, [r7, #16]
 80019be:	e008      	b.n	80019d2 <HAL_RCC_OscConfig+0xd2>
 80019c0:	f7ff f8e2 	bl	8000b88 <HAL_GetTick>
 80019c4:	4602      	mov	r2, r0
 80019c6:	693b      	ldr	r3, [r7, #16]
 80019c8:	1ad3      	subs	r3, r2, r3
 80019ca:	2b64      	cmp	r3, #100	@ 0x64
 80019cc:	d901      	bls.n	80019d2 <HAL_RCC_OscConfig+0xd2>
 80019ce:	2303      	movs	r3, #3
 80019d0:	e207      	b.n	8001de2 <HAL_RCC_OscConfig+0x4e2>
 80019d2:	4b5b      	ldr	r3, [pc, #364]	@ (8001b40 <HAL_RCC_OscConfig+0x240>)
 80019d4:	681b      	ldr	r3, [r3, #0]
 80019d6:	f403 3300 	and.w	r3, r3, #131072	@ 0x20000
 80019da:	2b00      	cmp	r3, #0
 80019dc:	d0f0      	beq.n	80019c0 <HAL_RCC_OscConfig+0xc0>
 80019de:	e014      	b.n	8001a0a <HAL_RCC_OscConfig+0x10a>
 80019e0:	f7ff f8d2 	bl	8000b88 <HAL_GetTick>
 80019e4:	6138      	str	r0, [r7, #16]
 80019e6:	e008      	b.n	80019fa <HAL_RCC_OscConfig+0xfa>
 80019e8:	f7ff f8ce 	bl	8000b88 <HAL_GetTick>
 80019ec:	4602      	mov	r2, r0
 80019ee:	693b      	ldr	r3, [r7, #16]
 80019f0:	1ad3      	subs	r3, r2, r3
 80019f2:	2b64      	cmp	r3, #100	@ 0x64
 80019f4:	d901      	bls.n	80019fa <HAL_RCC_OscConfig+0xfa>
 80019f6:	2303      	movs	r3, #3
 80019f8:	e1f3      	b.n	8001de2 <HAL_RCC_OscConfig+0x4e2>
 80019fa:	4b51      	ldr	r3, [pc, #324]	@ (8001b40 <HAL_RCC_OscConfig+0x240>)
 80019fc:	681b      	ldr	r3, [r3, #0]
 80019fe:	f403 3300 	and.w	r3, r3, #131072	@ 0x20000
 8001a02:	2b00      	cmp	r3, #0
 8001a04:	d1f0      	bne.n	80019e8 <HAL_RCC_OscConfig+0xe8>
 8001a06:	e000      	b.n	8001a0a <HAL_RCC_OscConfig+0x10a>
 8001a08:	bf00      	nop
 8001a0a:	687b      	ldr	r3, [r7, #4]
 8001a0c:	681b      	ldr	r3, [r3, #0]
 8001a0e:	f003 0302 	and.w	r3, r3, #2
 8001a12:	2b00      	cmp	r3, #0
 8001a14:	d063      	beq.n	8001ade <HAL_RCC_OscConfig+0x1de>
 8001a16:	4b4a      	ldr	r3, [pc, #296]	@ (8001b40 <HAL_RCC_OscConfig+0x240>)
 8001a18:	689b      	ldr	r3, [r3, #8]
 8001a1a:	f003 030c 	and.w	r3, r3, #12
 8001a1e:	2b00      	cmp	r3, #0
 8001a20:	d00b      	beq.n	8001a3a <HAL_RCC_OscConfig+0x13a>
 8001a22:	4b47      	ldr	r3, [pc, #284]	@ (8001b40 <HAL_RCC_OscConfig+0x240>)
 8001a24:	689b      	ldr	r3, [r3, #8]
 8001a26:	f003 030c 	and.w	r3, r3, #12
 8001a2a:	2b08      	cmp	r3, #8
 8001a2c:	d11c      	bne.n	8001a68 <HAL_RCC_OscConfig+0x168>
 8001a2e:	4b44      	ldr	r3, [pc, #272]	@ (8001b40 <HAL_RCC_OscConfig+0x240>)
 8001a30:	685b      	ldr	r3, [r3, #4]
 8001a32:	f403 0380 	and.w	r3, r3, #4194304	@ 0x400000
 8001a36:	2b00      	cmp	r3, #0
 8001a38:	d116      	bne.n	8001a68 <HAL_RCC_OscConfig+0x168>
 8001a3a:	4b41      	ldr	r3, [pc, #260]	@ (8001b40 <HAL_RCC_OscConfig+0x240>)
 8001a3c:	681b      	ldr	r3, [r3, #0]
 8001a3e:	f003 0302 	and.w	r3, r3, #2
 8001a42:	2b00      	cmp	r3, #0
 8001a44:	d005      	beq.n	8001a52 <HAL_RCC_OscConfig+0x152>
 8001a46:	687b      	ldr	r3, [r7, #4]
 8001a48:	68db      	ldr	r3, [r3, #12]
 8001a4a:	2b01      	cmp	r3, #1
 8001a4c:	d001      	beq.n	8001a52 <HAL_RCC_OscConfig+0x152>
 8001a4e:	2301      	movs	r3, #1
 8001a50:	e1c7      	b.n	8001de2 <HAL_RCC_OscConfig+0x4e2>
 8001a52:	4b3b      	ldr	r3, [pc, #236]	@ (8001b40 <HAL_RCC_OscConfig+0x240>)
 8001a54:	681b      	ldr	r3, [r3, #0]
 8001a56:	f023 02f8 	bic.w	r2, r3, #248	@ 0xf8
 8001a5a:	687b      	ldr	r3, [r7, #4]
 8001a5c:	691b      	ldr	r3, [r3, #16]
 8001a5e:	00db      	lsls	r3, r3, #3
 8001a60:	4937      	ldr	r1, [pc, #220]	@ (8001b40 <HAL_RCC_OscConfig+0x240>)
 8001a62:	4313      	orrs	r3, r2
 8001a64:	600b      	str	r3, [r1, #0]
 8001a66:	e03a      	b.n	8001ade <HAL_RCC_OscConfig+0x1de>
 8001a68:	687b      	ldr	r3, [r7, #4]
 8001a6a:	68db      	ldr	r3, [r3, #12]
 8001a6c:	2b00      	cmp	r3, #0
 8001a6e:	d020      	beq.n	8001ab2 <HAL_RCC_OscConfig+0x1b2>
 8001a70:	4b34      	ldr	r3, [pc, #208]	@ (8001b44 <HAL_RCC_OscConfig+0x244>)
 8001a72:	2201      	movs	r2, #1
 8001a74:	601a      	str	r2, [r3, #0]
 8001a76:	f7ff f887 	bl	8000b88 <HAL_GetTick>
 8001a7a:	6138      	str	r0, [r7, #16]
 8001a7c:	e008      	b.n	8001a90 <HAL_RCC_OscConfig+0x190>
 8001a7e:	f7ff f883 	bl	8000b88 <HAL_GetTick>
 8001a82:	4602      	mov	r2, r0
 8001a84:	693b      	ldr	r3, [r7, #16]
 8001a86:	1ad3      	subs	r3, r2, r3
 8001a88:	2b02      	cmp	r3, #2
 8001a8a:	d901      	bls.n	8001a90 <HAL_RCC_OscConfig+0x190>
 8001a8c:	2303      	movs	r3, #3
 8001a8e:	e1a8      	b.n	8001de2 <HAL_RCC_OscConfig+0x4e2>
 8001a90:	4b2b      	ldr	r3, [pc, #172]	@ (8001b40 <HAL_RCC_OscConfig+0x240>)
 8001a92:	681b      	ldr	r3, [r3, #0]
 8001a94:	f003 0302 	and.w	r3, r3, #2
 8001a98:	2b00      	cmp	r3, #0
 8001a9a:	d0f0      	beq.n	8001a7e <HAL_RCC_OscConfig+0x17e>
 8001a9c:	4b28      	ldr	r3, [pc, #160]	@ (8001b40 <HAL_RCC_OscConfig+0x240>)
 8001a9e:	681b      	ldr	r3, [r3, #0]
 8001aa0:	f023 02f8 	bic.w	r2, r3, #248	@ 0xf8
 8001aa4:	687b      	ldr	r3, [r7, #4]
 8001aa6:	691b      	ldr	r3, [r3, #16]
 8001aa8:	00db      	lsls	r3, r3, #3
 8001aaa:	4925      	ldr	r1, [pc, #148]	@ (8001b40 <HAL_RCC_OscConfig+0x240>)
 8001aac:	4313      	orrs	r3, r2
 8001aae:	600b      	str	r3, [r1, #0]
 8001ab0:	e015      	b.n	8001ade <HAL_RCC_OscConfig+0x1de>
 8001ab2:	4b24      	ldr	r3, [pc, #144]	@ (8001b44 <HAL_RCC_OscConfig+0x244>)
 8001ab4:	2200      	movs	r2, #0
 8001ab6:	601a      	str	r2, [r3, #0]
 8001ab8:	f7ff f866 	bl	8000b88 <HAL_GetTick>
 8001abc:	6138      	str	r0, [r7, #16]
 8001abe:	e008      	b.n	8001ad2 <HAL_RCC_OscConfig+0x1d2>
 8001ac0:	f7ff f862 	bl	8000b88 <HAL_GetTick>
 8001ac4:	4602      	mov	r2, r0
 8001ac6:	693b      	ldr	r3, [r7, #16]
 8001ac8:	1ad3      	subs	r3, r2, r3
 8001aca:	2b02      	cmp	r3, #2
 8001acc:	d901      	bls.n	8001ad2 <HAL_RCC_OscConfig+0x1d2>
 8001ace:	2303      	movs	r3, #3
 8001ad0:	e187      	b.n	8001de2 <HAL_RCC_OscConfig+0x4e2>
 8001ad2:	4b1b      	ldr	r3, [pc, #108]	@ (8001b40 <HAL_RCC_OscConfig+0x240>)
 8001ad4:	681b      	ldr	r3, [r3, #0]
 8001ad6:	f003 0302 	and.w	r3, r3, #2
 8001ada:	2b00      	cmp	r3, #0
 8001adc:	d1f0      	bne.n	8001ac0 <HAL_RCC_OscConfig+0x1c0>
 8001ade:	687b      	ldr	r3, [r7, #4]
 8001ae0:	681b      	ldr	r3, [r3, #0]
 8001ae2:	f003 0308 	and.w	r3, r3, #8
 8001ae6:	2b00      	cmp	r3, #0
 8001ae8:	d036      	beq.n	8001b58 <HAL_RCC_OscConfig+0x258>
 8001aea:	687b      	ldr	r3, [r7, #4]
 8001aec:	695b      	ldr	r3, [r3, #20]
 8001aee:	2b00      	cmp	r3, #0
 8001af0:	d016      	beq.n	8001b20 <HAL_RCC_OscConfig+0x220>
 8001af2:	4b15      	ldr	r3, [pc, #84]	@ (8001b48 <HAL_RCC_OscConfig+0x248>)
 8001af4:	2201      	movs	r2, #1
 8001af6:	601a      	str	r2, [r3, #0]
 8001af8:	f7ff f846 	bl	8000b88 <HAL_GetTick>
 8001afc:	6138      	str	r0, [r7, #16]
 8001afe:	e008      	b.n	8001b12 <HAL_RCC_OscConfig+0x212>
 8001b00:	f7ff f842 	bl	8000b88 <HAL_GetTick>
 8001b04:	4602      	mov	r2, r0
 8001b06:	693b      	ldr	r3, [r7, #16]
 8001b08:	1ad3      	subs	r3, r2, r3
 8001b0a:	2b02      	cmp	r3, #2
 8001b0c:	d901      	bls.n	8001b12 <HAL_RCC_OscConfig+0x212>
 8001b0e:	2303      	movs	r3, #3
 8001b10:	e167      	b.n	8001de2 <HAL_RCC_OscConfig+0x4e2>
 8001b12:	4b0b      	ldr	r3, [pc, #44]	@ (8001b40 <HAL_RCC_OscConfig+0x240>)
 8001b14:	6f5b      	ldr	r3, [r3, #116]	@ 0x74
 8001b16:	f003 0302 	and.w	r3, r3, #2
 8001b1a:	2b00      	cmp	r3, #0
 8001b1c:	d0f0      	beq.n	8001b00 <HAL_RCC_OscConfig+0x200>
 8001b1e:	e01b      	b.n	8001b58 <HAL_RCC_OscConfig+0x258>
 8001b20:	4b09      	ldr	r3, [pc, #36]	@ (8001b48 <HAL_RCC_OscConfig+0x248>)
 8001b22:	2200      	movs	r2, #0
 8001b24:	601a      	str	r2, [r3, #0]
 8001b26:	f7ff f82f 	bl	8000b88 <HAL_GetTick>
 8001b2a:	6138      	str	r0, [r7, #16]
 8001b2c:	e00e      	b.n	8001b4c <HAL_RCC_OscConfig+0x24c>
 8001b2e:	f7ff f82b 	bl	8000b88 <HAL_GetTick>
 8001b32:	4602      	mov	r2, r0
 8001b34:	693b      	ldr	r3, [r7, #16]
 8001b36:	1ad3      	subs	r3, r2, r3
 8001b38:	2b02      	cmp	r3, #2
 8001b3a:	d907      	bls.n	8001b4c <HAL_RCC_OscConfig+0x24c>
 8001b3c:	2303      	movs	r3, #3
 8001b3e:	e150      	b.n	8001de2 <HAL_RCC_OscConfig+0x4e2>
 8001b40:	40023800 	.word	0x40023800
 8001b44:	42470000 	.word	0x42470000
 8001b48:	42470e80 	.word	0x42470e80
 8001b4c:	4b88      	ldr	r3, [pc, #544]	@ (8001d70 <HAL_RCC_OscConfig+0x470>)
 8001b4e:	6f5b      	ldr	r3, [r3, #116]	@ 0x74
 8001b50:	f003 0302 	and.w	r3, r3, #2
 8001b54:	2b00      	cmp	r3, #0
 8001b56:	d1ea      	bne.n	8001b2e <HAL_RCC_OscConfig+0x22e>
 8001b58:	687b      	ldr	r3, [r7, #4]
 8001b5a:	681b      	ldr	r3, [r3, #0]
 8001b5c:	f003 0304 	and.w	r3, r3, #4
 8001b60:	2b00      	cmp	r3, #0
 8001b62:	f000 8097 	beq.w	8001c94 <HAL_RCC_OscConfig+0x394>
 8001b66:	2300      	movs	r3, #0
 8001b68:	75fb      	strb	r3, [r7, #23]
 8001b6a:	4b81      	ldr	r3, [pc, #516]	@ (8001d70 <HAL_RCC_OscConfig+0x470>)
 8001b6c:	6c1b      	ldr	r3, [r3, #64]	@ 0x40
 8001b6e:	f003 5380 	and.w	r3, r3, #268435456	@ 0x10000000
 8001b72:	2b00      	cmp	r3, #0
 8001b74:	d10f      	bne.n	8001b96 <HAL_RCC_OscConfig+0x296>
 8001b76:	2300      	movs	r3, #0
 8001b78:	60bb      	str	r3, [r7, #8]
 8001b7a:	4b7d      	ldr	r3, [pc, #500]	@ (8001d70 <HAL_RCC_OscConfig+0x470>)
 8001b7c:	6c1b      	ldr	r3, [r3, #64]	@ 0x40
 8001b7e:	4a7c      	ldr	r2, [pc, #496]	@ (8001d70 <HAL_RCC_OscConfig+0x470>)
 8001b80:	f043 5380 	orr.w	r3, r3, #268435456	@ 0x10000000
 8001b84:	6413      	str	r3, [r2, #64]	@ 0x40
 8001b86:	4b7a      	ldr	r3, [pc, #488]	@ (8001d70 <HAL_RCC_OscConfig+0x470>)
 8001b88:	6c1b      	ldr	r3, [r3, #64]	@ 0x40
 8001b8a:	f003 5380 	and.w	r3, r3, #268435456	@ 0x10000000
 8001b8e:	60bb      	str	r3, [r7, #8]
 8001b90:	68bb      	ldr	r3, [r7, #8]
 8001b92:	2301      	movs	r3, #1
 8001b94:	75fb      	strb	r3, [r7, #23]
 8001b96:	4b77      	ldr	r3, [pc, #476]	@ (8001d74 <HAL_RCC_OscConfig+0x474>)
 8001b98:	681b      	ldr	r3, [r3, #0]
 8001b9a:	f403 7380 	and.w	r3, r3, #256	@ 0x100
 8001b9e:	2b00      	cmp	r3, #0
 8001ba0:	d118      	bne.n	8001bd4 <HAL_RCC_OscConfig+0x2d4>
 8001ba2:	4b74      	ldr	r3, [pc, #464]	@ (8001d74 <HAL_RCC_OscConfig+0x474>)
 8001ba4:	681b      	ldr	r3, [r3, #0]
 8001ba6:	4a73      	ldr	r2, [pc, #460]	@ (8001d74 <HAL_RCC_OscConfig+0x474>)
 8001ba8:	f443 7380 	orr.w	r3, r3, #256	@ 0x100
 8001bac:	6013      	str	r3, [r2, #0]
 8001bae:	f7fe ffeb 	bl	8000b88 <HAL_GetTick>
 8001bb2:	6138      	str	r0, [r7, #16]
 8001bb4:	e008      	b.n	8001bc8 <HAL_RCC_OscConfig+0x2c8>
 8001bb6:	f7fe ffe7 	bl	8000b88 <HAL_GetTick>
 8001bba:	4602      	mov	r2, r0
 8001bbc:	693b      	ldr	r3, [r7, #16]
 8001bbe:	1ad3      	subs	r3, r2, r3
 8001bc0:	2b02      	cmp	r3, #2
 8001bc2:	d901      	bls.n	8001bc8 <HAL_RCC_OscConfig+0x2c8>
 8001bc4:	2303      	movs	r3, #3
 8001bc6:	e10c      	b.n	8001de2 <HAL_RCC_OscConfig+0x4e2>
 8001bc8:	4b6a      	ldr	r3, [pc, #424]	@ (8001d74 <HAL_RCC_OscConfig+0x474>)
 8001bca:	681b      	ldr	r3, [r3, #0]
 8001bcc:	f403 7380 	and.w	r3, r3, #256	@ 0x100
 8001bd0:	2b00      	cmp	r3, #0
 8001bd2:	d0f0      	beq.n	8001bb6 <HAL_RCC_OscConfig+0x2b6>
 8001bd4:	687b      	ldr	r3, [r7, #4]
 8001bd6:	689b      	ldr	r3, [r3, #8]
 8001bd8:	2b01      	cmp	r3, #1
 8001bda:	d106      	bne.n	8001bea <HAL_RCC_OscConfig+0x2ea>
 8001bdc:	4b64      	ldr	r3, [pc, #400]	@ (8001d70 <HAL_RCC_OscConfig+0x470>)
 8001bde:	6f1b      	ldr	r3, [r3, #112]	@ 0x70
 8001be0:	4a63      	ldr	r2, [pc, #396]	@ (8001d70 <HAL_RCC_OscConfig+0x470>)
 8001be2:	f043 0301 	orr.w	r3, r3, #1
 8001be6:	6713      	str	r3, [r2, #112]	@ 0x70
 8001be8:	e01c      	b.n	8001c24 <HAL_RCC_OscConfig+0x324>
 8001bea:	687b      	ldr	r3, [r7, #4]
 8001bec:	689b      	ldr	r3, [r3, #8]
 8001bee:	2b05      	cmp	r3, #5
 8001bf0:	d10c      	bne.n	8001c0c <HAL_RCC_OscConfig+0x30c>
 8001bf2:	4b5f      	ldr	r3, [pc, #380]	@ (8001d70 <HAL_RCC_OscConfig+0x470>)
 8001bf4:	6f1b      	ldr	r3, [r3, #112]	@ 0x70
 8001bf6:	4a5e      	ldr	r2, [pc, #376]	@ (8001d70 <HAL_RCC_OscConfig+0x470>)
 8001bf8:	f043 0304 	orr.w	r3, r3, #4
 8001bfc:	6713      	str	r3, [r2, #112]	@ 0x70
 8001bfe:	4b5c      	ldr	r3, [pc, #368]	@ (8001d70 <HAL_RCC_OscConfig+0x470>)
 8001c00:	6f1b      	ldr	r3, [r3, #112]	@ 0x70
 8001c02:	4a5b      	ldr	r2, [pc, #364]	@ (8001d70 <HAL_RCC_OscConfig+0x470>)
 8001c04:	f043 0301 	orr.w	r3, r3, #1
 8001c08:	6713      	str	r3, [r2, #112]	@ 0x70
 8001c0a:	e00b      	b.n	8001c24 <HAL_RCC_OscConfig+0x324>
 8001c0c:	4b58      	ldr	r3, [pc, #352]	@ (8001d70 <HAL_RCC_OscConfig+0x470>)
 8001c0e:	6f1b      	ldr	r3, [r3, #112]	@ 0x70
 8001c10:	4a57      	ldr	r2, [pc, #348]	@ (8001d70 <HAL_RCC_OscConfig+0x470>)
 8001c12:	f023 0301 	bic.w	r3, r3, #1
 8001c16:	6713      	str	r3, [r2, #112]	@ 0x70
 8001c18:	4b55      	ldr	r3, [pc, #340]	@ (8001d70 <HAL_RCC_OscConfig+0x470>)
 8001c1a:	6f1b      	ldr	r3, [r3, #112]	@ 0x70
 8001c1c:	4a54      	ldr	r2, [pc, #336]	@ (8001d70 <HAL_RCC_OscConfig+0x470>)
 8001c1e:	f023 0304 	bic.w	r3, r3, #4
 8001c22:	6713      	str	r3, [r2, #112]	@ 0x70
 8001c24:	687b      	ldr	r3, [r7, #4]
 8001c26:	689b      	ldr	r3, [r3, #8]
 8001c28:	2b00      	cmp	r3, #0
 8001c2a:	d015      	beq.n	8001c58 <HAL_RCC_OscConfig+0x358>
 8001c2c:	f7fe ffac 	bl	8000b88 <HAL_GetTick>
 8001c30:	6138      	str	r0, [r7, #16]
 8001c32:	e00a      	b.n	8001c4a <HAL_RCC_OscConfig+0x34a>
 8001c34:	f7fe ffa8 	bl	8000b88 <HAL_GetTick>
 8001c38:	4602      	mov	r2, r0
 8001c3a:	693b      	ldr	r3, [r7, #16]
 8001c3c:	1ad3      	subs	r3, r2, r3
 8001c3e:	f241 3288 	movw	r2, #5000	@ 0x1388
 8001c42:	4293      	cmp	r3, r2
 8001c44:	d901      	bls.n	8001c4a <HAL_RCC_OscConfig+0x34a>
 8001c46:	2303      	movs	r3, #3
 8001c48:	e0cb      	b.n	8001de2 <HAL_RCC_OscConfig+0x4e2>
 8001c4a:	4b49      	ldr	r3, [pc, #292]	@ (8001d70 <HAL_RCC_OscConfig+0x470>)
 8001c4c:	6f1b      	ldr	r3, [r3, #112]	@ 0x70
 8001c4e:	f003 0302 	and.w	r3, r3, #2
 8001c52:	2b00      	cmp	r3, #0
 8001c54:	d0ee      	beq.n	8001c34 <HAL_RCC_OscConfig+0x334>
 8001c56:	e014      	b.n	8001c82 <HAL_RCC_OscConfig+0x382>
 8001c58:	f7fe ff96 	bl	8000b88 <HAL_GetTick>
 8001c5c:	6138      	str	r0, [r7, #16]
 8001c5e:	e00a      	b.n	8001c76 <HAL_RCC_OscConfig+0x376>
 8001c60:	f7fe ff92 	bl	8000b88 <HAL_GetTick>
 8001c64:	4602      	mov	r2, r0
 8001c66:	693b      	ldr	r3, [r7, #16]
 8001c68:	1ad3      	subs	r3, r2, r3
 8001c6a:	f241 3288 	movw	r2, #5000	@ 0x1388
 8001c6e:	4293      	cmp	r3, r2
 8001c70:	d901      	bls.n	8001c76 <HAL_RCC_OscConfig+0x376>
 8001c72:	2303      	movs	r3, #3
 8001c74:	e0b5      	b.n	8001de2 <HAL_RCC_OscConfig+0x4e2>
 8001c76:	4b3e      	ldr	r3, [pc, #248]	@ (8001d70 <HAL_RCC_OscConfig+0x470>)
 8001c78:	6f1b      	ldr	r3, [r3, #112]	@ 0x70
 8001c7a:	f003 0302 	and.w	r3, r3, #2
 8001c7e:	2b00      	cmp	r3, #0
 8001c80:	d1ee      	bne.n	8001c60 <HAL_RCC_OscConfig+0x360>
 8001c82:	7dfb      	ldrb	r3, [r7, #23]
 8001c84:	2b01      	cmp	r3, #1
 8001c86:	d105      	bne.n	8001c94 <HAL_RCC_OscConfig+0x394>
 8001c88:	4b39      	ldr	r3, [pc, #228]	@ (8001d70 <HAL_RCC_OscConfig+0x470>)
 8001c8a:	6c1b      	ldr	r3, [r3, #64]	@ 0x40
 8001c8c:	4a38      	ldr	r2, [pc, #224]	@ (8001d70 <HAL_RCC_OscConfig+0x470>)
 8001c8e:	f023 5380 	bic.w	r3, r3, #268435456	@ 0x10000000
 8001c92:	6413      	str	r3, [r2, #64]	@ 0x40
 8001c94:	687b      	ldr	r3, [r7, #4]
 8001c96:	699b      	ldr	r3, [r3, #24]
 8001c98:	2b00      	cmp	r3, #0
 8001c9a:	f000 80a1 	beq.w	8001de0 <HAL_RCC_OscConfig+0x4e0>
 8001c9e:	4b34      	ldr	r3, [pc, #208]	@ (8001d70 <HAL_RCC_OscConfig+0x470>)
 8001ca0:	689b      	ldr	r3, [r3, #8]
 8001ca2:	f003 030c 	and.w	r3, r3, #12
 8001ca6:	2b08      	cmp	r3, #8
 8001ca8:	d05c      	beq.n	8001d64 <HAL_RCC_OscConfig+0x464>
 8001caa:	687b      	ldr	r3, [r7, #4]
 8001cac:	699b      	ldr	r3, [r3, #24]
 8001cae:	2b02      	cmp	r3, #2
 8001cb0:	d141      	bne.n	8001d36 <HAL_RCC_OscConfig+0x436>
 8001cb2:	4b31      	ldr	r3, [pc, #196]	@ (8001d78 <HAL_RCC_OscConfig+0x478>)
 8001cb4:	2200      	movs	r2, #0
 8001cb6:	601a      	str	r2, [r3, #0]
 8001cb8:	f7fe ff66 	bl	8000b88 <HAL_GetTick>
 8001cbc:	6138      	str	r0, [r7, #16]
 8001cbe:	e008      	b.n	8001cd2 <HAL_RCC_OscConfig+0x3d2>
 8001cc0:	f7fe ff62 	bl	8000b88 <HAL_GetTick>
 8001cc4:	4602      	mov	r2, r0
 8001cc6:	693b      	ldr	r3, [r7, #16]
 8001cc8:	1ad3      	subs	r3, r2, r3
 8001cca:	2b02      	cmp	r3, #2
 8001ccc:	d901      	bls.n	8001cd2 <HAL_RCC_OscConfig+0x3d2>
 8001cce:	2303      	movs	r3, #3
 8001cd0:	e087      	b.n	8001de2 <HAL_RCC_OscConfig+0x4e2>
 8001cd2:	4b27      	ldr	r3, [pc, #156]	@ (8001d70 <HAL_RCC_OscConfig+0x470>)
 8001cd4:	681b      	ldr	r3, [r3, #0]
 8001cd6:	f003 7300 	and.w	r3, r3, #33554432	@ 0x2000000
 8001cda:	2b00      	cmp	r3, #0
 8001cdc:	d1f0      	bne.n	8001cc0 <HAL_RCC_OscConfig+0x3c0>
 8001cde:	687b      	ldr	r3, [r7, #4]
 8001ce0:	69da      	ldr	r2, [r3, #28]
 8001ce2:	687b      	ldr	r3, [r7, #4]
 8001ce4:	6a1b      	ldr	r3, [r3, #32]
 8001ce6:	431a      	orrs	r2, r3
 8001ce8:	687b      	ldr	r3, [r7, #4]
 8001cea:	6a5b      	ldr	r3, [r3, #36]	@ 0x24
 8001cec:	019b      	lsls	r3, r3, #6
 8001cee:	431a      	orrs	r2, r3
 8001cf0:	687b      	ldr	r3, [r7, #4]
 8001cf2:	6a9b      	ldr	r3, [r3, #40]	@ 0x28
 8001cf4:	085b      	lsrs	r3, r3, #1
 8001cf6:	3b01      	subs	r3, #1
 8001cf8:	041b      	lsls	r3, r3, #16
 8001cfa:	431a      	orrs	r2, r3
 8001cfc:	687b      	ldr	r3, [r7, #4]
 8001cfe:	6adb      	ldr	r3, [r3, #44]	@ 0x2c
 8001d00:	061b      	lsls	r3, r3, #24
 8001d02:	491b      	ldr	r1, [pc, #108]	@ (8001d70 <HAL_RCC_OscConfig+0x470>)
 8001d04:	4313      	orrs	r3, r2
 8001d06:	604b      	str	r3, [r1, #4]
 8001d08:	4b1b      	ldr	r3, [pc, #108]	@ (8001d78 <HAL_RCC_OscConfig+0x478>)
 8001d0a:	2201      	movs	r2, #1
 8001d0c:	601a      	str	r2, [r3, #0]
 8001d0e:	f7fe ff3b 	bl	8000b88 <HAL_GetTick>
 8001d12:	6138      	str	r0, [r7, #16]
 8001d14:	e008      	b.n	8001d28 <HAL_RCC_OscConfig+0x428>
 8001d16:	f7fe ff37 	bl	8000b88 <HAL_GetTick>
 8001d1a:	4602      	mov	r2, r0
 8001d1c:	693b      	ldr	r3, [r7, #16]
 8001d1e:	1ad3      	subs	r3, r2, r3
 8001d20:	2b02      	cmp	r3, #2
 8001d22:	d901      	bls.n	8001d28 <HAL_RCC_OscConfig+0x428>
 8001d24:	2303      	movs	r3, #3
 8001d26:	e05c      	b.n	8001de2 <HAL_RCC_OscConfig+0x4e2>
 8001d28:	4b11      	ldr	r3, [pc, #68]	@ (8001d70 <HAL_RCC_OscConfig+0x470>)
 8001d2a:	681b      	ldr	r3, [r3, #0]
 8001d2c:	f003 7300 	and.w	r3, r3, #33554432	@ 0x2000000
 8001d30:	2b00      	cmp	r3, #0
 8001d32:	d0f0      	beq.n	8001d16 <HAL_RCC_OscConfig+0x416>
 8001d34:	e054      	b.n	8001de0 <HAL_RCC_OscConfig+0x4e0>
 8001d36:	4b10      	ldr	r3, [pc, #64]	@ (8001d78 <HAL_RCC_OscConfig+0x478>)
 8001d38:	2200      	movs	r2, #0
 8001d3a:	601a      	str	r2, [r3, #0]
 8001d3c:	f7fe ff24 	bl	8000b88 <HAL_GetTick>
 8001d40:	6138      	str	r0, [r7, #16]
 8001d42:	e008      	b.n	8001d56 <HAL_RCC_OscConfig+0x456>
 8001d44:	f7fe ff20 	bl	8000b88 <HAL_GetTick>
 8001d48:	4602      	mov	r2, r0
 8001d4a:	693b      	ldr	r3, [r7, #16]
 8001d4c:	1ad3      	subs	r3, r2, r3
 8001d4e:	2b02      	cmp	r3, #2
 8001d50:	d901      	bls.n	8001d56 <HAL_RCC_OscConfig+0x456>
 8001d52:	2303      	movs	r3, #3
 8001d54:	e045      	b.n	8001de2 <HAL_RCC_OscConfig+0x4e2>
 8001d56:	4b06      	ldr	r3, [pc, #24]	@ (8001d70 <HAL_RCC_OscConfig+0x470>)
 8001d58:	681b      	ldr	r3, [r3, #0]
 8001d5a:	f003 7300 	and.w	r3, r3, #33554432	@ 0x2000000
 8001d5e:	2b00      	cmp	r3, #0
 8001d60:	d1f0      	bne.n	8001d44 <HAL_RCC_OscConfig+0x444>
 8001d62:	e03d      	b.n	8001de0 <HAL_RCC_OscConfig+0x4e0>
 8001d64:	687b      	ldr	r3, [r7, #4]
 8001d66:	699b      	ldr	r3, [r3, #24]
 8001d68:	2b01      	cmp	r3, #1
 8001d6a:	d107      	bne.n	8001d7c <HAL_RCC_OscConfig+0x47c>
 8001d6c:	2301      	movs	r3, #1
 8001d6e:	e038      	b.n	8001de2 <HAL_RCC_OscConfig+0x4e2>
 8001d70:	40023800 	.word	0x40023800
 8001d74:	40007000 	.word	0x40007000
 8001d78:	42470060 	.word	0x42470060
 8001d7c:	4b1b      	ldr	r3, [pc, #108]	@ (8001dec <HAL_RCC_OscConfig+0x4ec>)
 8001d7e:	685b      	ldr	r3, [r3, #4]
 8001d80:	60fb      	str	r3, [r7, #12]
 8001d82:	687b      	ldr	r3, [r7, #4]
 8001d84:	699b      	ldr	r3, [r3, #24]
 8001d86:	2b01      	cmp	r3, #1
 8001d88:	d028      	beq.n	8001ddc <HAL_RCC_OscConfig+0x4dc>
 8001d8a:	68fb      	ldr	r3, [r7, #12]
 8001d8c:	f403 0280 	and.w	r2, r3, #4194304	@ 0x400000
 8001d90:	687b      	ldr	r3, [r7, #4]
 8001d92:	69db      	ldr	r3, [r3, #28]
 8001d94:	429a      	cmp	r2, r3
 8001d96:	d121      	bne.n	8001ddc <HAL_RCC_OscConfig+0x4dc>
 8001d98:	68fb      	ldr	r3, [r7, #12]
 8001d9a:	f003 023f 	and.w	r2, r3, #63	@ 0x3f
 8001d9e:	687b      	ldr	r3, [r7, #4]
 8001da0:	6a1b      	ldr	r3, [r3, #32]
 8001da2:	429a      	cmp	r2, r3
 8001da4:	d11a      	bne.n	8001ddc <HAL_RCC_OscConfig+0x4dc>
 8001da6:	68fa      	ldr	r2, [r7, #12]
 8001da8:	f647 73c0 	movw	r3, #32704	@ 0x7fc0
 8001dac:	4013      	ands	r3, r2
 8001dae:	687a      	ldr	r2, [r7, #4]
 8001db0:	6a52      	ldr	r2, [r2, #36]	@ 0x24
 8001db2:	0192      	lsls	r2, r2, #6
 8001db4:	4293      	cmp	r3, r2
 8001db6:	d111      	bne.n	8001ddc <HAL_RCC_OscConfig+0x4dc>
 8001db8:	68fb      	ldr	r3, [r7, #12]
 8001dba:	f403 3240 	and.w	r2, r3, #196608	@ 0x30000
 8001dbe:	687b      	ldr	r3, [r7, #4]
 8001dc0:	6a9b      	ldr	r3, [r3, #40]	@ 0x28
 8001dc2:	085b      	lsrs	r3, r3, #1
 8001dc4:	3b01      	subs	r3, #1
 8001dc6:	041b      	lsls	r3, r3, #16
 8001dc8:	429a      	cmp	r2, r3
 8001dca:	d107      	bne.n	8001ddc <HAL_RCC_OscConfig+0x4dc>
 8001dcc:	68fb      	ldr	r3, [r7, #12]
 8001dce:	f003 6270 	and.w	r2, r3, #251658240	@ 0xf000000
 8001dd2:	687b      	ldr	r3, [r7, #4]
 8001dd4:	6adb      	ldr	r3, [r3, #44]	@ 0x2c
 8001dd6:	061b      	lsls	r3, r3, #24
 8001dd8:	429a      	cmp	r2, r3
 8001dda:	d001      	beq.n	8001de0 <HAL_RCC_OscConfig+0x4e0>
 8001ddc:	2301      	movs	r3, #1
 8001dde:	e000      	b.n	8001de2 <HAL_RCC_OscConfig+0x4e2>
 8001de0:	2300      	movs	r3, #0
 8001de2:	4618      	mov	r0, r3
 8001de4:	3718      	adds	r7, #24
 8001de6:	46bd      	mov	sp, r7
 8001de8:	bd80      	pop	{r7, pc}
 8001dea:	bf00      	nop
 8001dec:	40023800 	.word	0x40023800

08001df0 <HAL_RCC_ClockConfig>:
 8001df0:	b580      	push	{r7, lr}
 8001df2:	b084      	sub	sp, #16
 8001df4:	af00      	add	r7, sp, #0
 8001df6:	6078      	str	r0, [r7, #4]
 8001df8:	6039      	str	r1, [r7, #0]
 8001dfa:	687b      	ldr	r3, [r7, #4]
 8001dfc:	2b00      	cmp	r3, #0
 8001dfe:	d101      	bne.n	8001e04 <HAL_RCC_ClockConfig+0x14>
 8001e00:	2301      	movs	r3, #1
 8001e02:	e0cc      	b.n	8001f9e <HAL_RCC_ClockConfig+0x1ae>
 8001e04:	4b68      	ldr	r3, [pc, #416]	@ (8001fa8 <HAL_RCC_ClockConfig+0x1b8>)
 8001e06:	681b      	ldr	r3, [r3, #0]
 8001e08:	f003 0307 	and.w	r3, r3, #7
 8001e0c:	683a      	ldr	r2, [r7, #0]
 8001e0e:	429a      	cmp	r2, r3
 8001e10:	d90c      	bls.n	8001e2c <HAL_RCC_ClockConfig+0x3c>
 8001e12:	4b65      	ldr	r3, [pc, #404]	@ (8001fa8 <HAL_RCC_ClockConfig+0x1b8>)
 8001e14:	683a      	ldr	r2, [r7, #0]
 8001e16:	b2d2      	uxtb	r2, r2
 8001e18:	701a      	strb	r2, [r3, #0]
 8001e1a:	4b63      	ldr	r3, [pc, #396]	@ (8001fa8 <HAL_RCC_ClockConfig+0x1b8>)
 8001e1c:	681b      	ldr	r3, [r3, #0]
 8001e1e:	f003 0307 	and.w	r3, r3, #7
 8001e22:	683a      	ldr	r2, [r7, #0]
 8001e24:	429a      	cmp	r2, r3
 8001e26:	d001      	beq.n	8001e2c <HAL_RCC_ClockConfig+0x3c>
 8001e28:	2301      	movs	r3, #1
 8001e2a:	e0b8      	b.n	8001f9e <HAL_RCC_ClockConfig+0x1ae>
 8001e2c:	687b      	ldr	r3, [r7, #4]
 8001e2e:	681b      	ldr	r3, [r3, #0]
 8001e30:	f003 0302 	and.w	r3, r3, #2
 8001e34:	2b00      	cmp	r3, #0
 8001e36:	d020      	beq.n	8001e7a <HAL_RCC_ClockConfig+0x8a>
 8001e38:	687b      	ldr	r3, [r7, #4]
 8001e3a:	681b      	ldr	r3, [r3, #0]
 8001e3c:	f003 0304 	and.w	r3, r3, #4
 8001e40:	2b00      	cmp	r3, #0
 8001e42:	d005      	beq.n	8001e50 <HAL_RCC_ClockConfig+0x60>
 8001e44:	4b59      	ldr	r3, [pc, #356]	@ (8001fac <HAL_RCC_ClockConfig+0x1bc>)
 8001e46:	689b      	ldr	r3, [r3, #8]
 8001e48:	4a58      	ldr	r2, [pc, #352]	@ (8001fac <HAL_RCC_ClockConfig+0x1bc>)
 8001e4a:	f443 53e0 	orr.w	r3, r3, #7168	@ 0x1c00
 8001e4e:	6093      	str	r3, [r2, #8]
 8001e50:	687b      	ldr	r3, [r7, #4]
 8001e52:	681b      	ldr	r3, [r3, #0]
 8001e54:	f003 0308 	and.w	r3, r3, #8
 8001e58:	2b00      	cmp	r3, #0
 8001e5a:	d005      	beq.n	8001e68 <HAL_RCC_ClockConfig+0x78>
 8001e5c:	4b53      	ldr	r3, [pc, #332]	@ (8001fac <HAL_RCC_ClockConfig+0x1bc>)
 8001e5e:	689b      	ldr	r3, [r3, #8]
 8001e60:	4a52      	ldr	r2, [pc, #328]	@ (8001fac <HAL_RCC_ClockConfig+0x1bc>)
 8001e62:	f443 4360 	orr.w	r3, r3, #57344	@ 0xe000
 8001e66:	6093      	str	r3, [r2, #8]
 8001e68:	4b50      	ldr	r3, [pc, #320]	@ (8001fac <HAL_RCC_ClockConfig+0x1bc>)
 8001e6a:	689b      	ldr	r3, [r3, #8]
 8001e6c:	f023 02f0 	bic.w	r2, r3, #240	@ 0xf0
 8001e70:	687b      	ldr	r3, [r7, #4]
 8001e72:	689b      	ldr	r3, [r3, #8]
 8001e74:	494d      	ldr	r1, [pc, #308]	@ (8001fac <HAL_RCC_ClockConfig+0x1bc>)
 8001e76:	4313      	orrs	r3, r2
 8001e78:	608b      	str	r3, [r1, #8]
 8001e7a:	687b      	ldr	r3, [r7, #4]
 8001e7c:	681b      	ldr	r3, [r3, #0]
 8001e7e:	f003 0301 	and.w	r3, r3, #1
 8001e82:	2b00      	cmp	r3, #0
 8001e84:	d044      	beq.n	8001f10 <HAL_RCC_ClockConfig+0x120>
 8001e86:	687b      	ldr	r3, [r7, #4]
 8001e88:	685b      	ldr	r3, [r3, #4]
 8001e8a:	2b01      	cmp	r3, #1
 8001e8c:	d107      	bne.n	8001e9e <HAL_RCC_ClockConfig+0xae>
 8001e8e:	4b47      	ldr	r3, [pc, #284]	@ (8001fac <HAL_RCC_ClockConfig+0x1bc>)
 8001e90:	681b      	ldr	r3, [r3, #0]
 8001e92:	f403 3300 	and.w	r3, r3, #131072	@ 0x20000
 8001e96:	2b00      	cmp	r3, #0
 8001e98:	d119      	bne.n	8001ece <HAL_RCC_ClockConfig+0xde>
 8001e9a:	2301      	movs	r3, #1
 8001e9c:	e07f      	b.n	8001f9e <HAL_RCC_ClockConfig+0x1ae>
 8001e9e:	687b      	ldr	r3, [r7, #4]
 8001ea0:	685b      	ldr	r3, [r3, #4]
 8001ea2:	2b02      	cmp	r3, #2
 8001ea4:	d003      	beq.n	8001eae <HAL_RCC_ClockConfig+0xbe>
 8001ea6:	687b      	ldr	r3, [r7, #4]
 8001ea8:	685b      	ldr	r3, [r3, #4]
 8001eaa:	2b03      	cmp	r3, #3
 8001eac:	d107      	bne.n	8001ebe <HAL_RCC_ClockConfig+0xce>
 8001eae:	4b3f      	ldr	r3, [pc, #252]	@ (8001fac <HAL_RCC_ClockConfig+0x1bc>)
 8001eb0:	681b      	ldr	r3, [r3, #0]
 8001eb2:	f003 7300 	and.w	r3, r3, #33554432	@ 0x2000000
 8001eb6:	2b00      	cmp	r3, #0
 8001eb8:	d109      	bne.n	8001ece <HAL_RCC_ClockConfig+0xde>
 8001eba:	2301      	movs	r3, #1
 8001ebc:	e06f      	b.n	8001f9e <HAL_RCC_ClockConfig+0x1ae>
 8001ebe:	4b3b      	ldr	r3, [pc, #236]	@ (8001fac <HAL_RCC_ClockConfig+0x1bc>)
 8001ec0:	681b      	ldr	r3, [r3, #0]
 8001ec2:	f003 0302 	and.w	r3, r3, #2
 8001ec6:	2b00      	cmp	r3, #0
 8001ec8:	d101      	bne.n	8001ece <HAL_RCC_ClockConfig+0xde>
 8001eca:	2301      	movs	r3, #1
 8001ecc:	e067      	b.n	8001f9e <HAL_RCC_ClockConfig+0x1ae>
 8001ece:	4b37      	ldr	r3, [pc, #220]	@ (8001fac <HAL_RCC_ClockConfig+0x1bc>)
 8001ed0:	689b      	ldr	r3, [r3, #8]
 8001ed2:	f023 0203 	bic.w	r2, r3, #3
 8001ed6:	687b      	ldr	r3, [r7, #4]
 8001ed8:	685b      	ldr	r3, [r3, #4]
 8001eda:	4934      	ldr	r1, [pc, #208]	@ (8001fac <HAL_RCC_ClockConfig+0x1bc>)
 8001edc:	4313      	orrs	r3, r2
 8001ede:	608b      	str	r3, [r1, #8]
 8001ee0:	f7fe fe52 	bl	8000b88 <HAL_GetTick>
 8001ee4:	60f8      	str	r0, [r7, #12]
 8001ee6:	e00a      	b.n	8001efe <HAL_RCC_ClockConfig+0x10e>
 8001ee8:	f7fe fe4e 	bl	8000b88 <HAL_GetTick>
 8001eec:	4602      	mov	r2, r0
 8001eee:	68fb      	ldr	r3, [r7, #12]
 8001ef0:	1ad3      	subs	r3, r2, r3
 8001ef2:	f241 3288 	movw	r2, #5000	@ 0x1388
 8001ef6:	4293      	cmp	r3, r2
 8001ef8:	d901      	bls.n	8001efe <HAL_RCC_ClockConfig+0x10e>
 8001efa:	2303      	movs	r3, #3
 8001efc:	e04f      	b.n	8001f9e <HAL_RCC_ClockConfig+0x1ae>
 8001efe:	4b2b      	ldr	r3, [pc, #172]	@ (8001fac <HAL_RCC_ClockConfig+0x1bc>)
 8001f00:	689b      	ldr	r3, [r3, #8]
 8001f02:	f003 020c 	and.w	r2, r3, #12
 8001f06:	687b      	ldr	r3, [r7, #4]
 8001f08:	685b      	ldr	r3, [r3, #4]
 8001f0a:	009b      	lsls	r3, r3, #2
 8001f0c:	429a      	cmp	r2, r3
 8001f0e:	d1eb      	bne.n	8001ee8 <HAL_RCC_ClockConfig+0xf8>
 8001f10:	4b25      	ldr	r3, [pc, #148]	@ (8001fa8 <HAL_RCC_ClockConfig+0x1b8>)
 8001f12:	681b      	ldr	r3, [r3, #0]
 8001f14:	f003 0307 	and.w	r3, r3, #7
 8001f18:	683a      	ldr	r2, [r7, #0]
 8001f1a:	429a      	cmp	r2, r3
 8001f1c:	d20c      	bcs.n	8001f38 <HAL_RCC_ClockConfig+0x148>
 8001f1e:	4b22      	ldr	r3, [pc, #136]	@ (8001fa8 <HAL_RCC_ClockConfig+0x1b8>)
 8001f20:	683a      	ldr	r2, [r7, #0]
 8001f22:	b2d2      	uxtb	r2, r2
 8001f24:	701a      	strb	r2, [r3, #0]
 8001f26:	4b20      	ldr	r3, [pc, #128]	@ (8001fa8 <HAL_RCC_ClockConfig+0x1b8>)
 8001f28:	681b      	ldr	r3, [r3, #0]
 8001f2a:	f003 0307 	and.w	r3, r3, #7
 8001f2e:	683a      	ldr	r2, [r7, #0]
 8001f30:	429a      	cmp	r2, r3
 8001f32:	d001      	beq.n	8001f38 <HAL_RCC_ClockConfig+0x148>
 8001f34:	2301      	movs	r3, #1
 8001f36:	e032      	b.n	8001f9e <HAL_RCC_ClockConfig+0x1ae>
 8001f38:	687b      	ldr	r3, [r7, #4]
 8001f3a:	681b      	ldr	r3, [r3, #0]
 8001f3c:	f003 0304 	and.w	r3, r3, #4
 8001f40:	2b00      	cmp	r3, #0
 8001f42:	d008      	beq.n	8001f56 <HAL_RCC_ClockConfig+0x166>
 8001f44:	4b19      	ldr	r3, [pc, #100]	@ (8001fac <HAL_RCC_ClockConfig+0x1bc>)
 8001f46:	689b      	ldr	r3, [r3, #8]
 8001f48:	f423 52e0 	bic.w	r2, r3, #7168	@ 0x1c00
 8001f4c:	687b      	ldr	r3, [r7, #4]
 8001f4e:	68db      	ldr	r3, [r3, #12]
 8001f50:	4916      	ldr	r1, [pc, #88]	@ (8001fac <HAL_RCC_ClockConfig+0x1bc>)
 8001f52:	4313      	orrs	r3, r2
 8001f54:	608b      	str	r3, [r1, #8]
 8001f56:	687b      	ldr	r3, [r7, #4]
 8001f58:	681b      	ldr	r3, [r3, #0]
 8001f5a:	f003 0308 	and.w	r3, r3, #8
 8001f5e:	2b00      	cmp	r3, #0
 8001f60:	d009      	beq.n	8001f76 <HAL_RCC_ClockConfig+0x186>
 8001f62:	4b12      	ldr	r3, [pc, #72]	@ (8001fac <HAL_RCC_ClockConfig+0x1bc>)
 8001f64:	689b      	ldr	r3, [r3, #8]
 8001f66:	f423 4260 	bic.w	r2, r3, #57344	@ 0xe000
 8001f6a:	687b      	ldr	r3, [r7, #4]
 8001f6c:	691b      	ldr	r3, [r3, #16]
 8001f6e:	00db      	lsls	r3, r3, #3
 8001f70:	490e      	ldr	r1, [pc, #56]	@ (8001fac <HAL_RCC_ClockConfig+0x1bc>)
 8001f72:	4313      	orrs	r3, r2
 8001f74:	608b      	str	r3, [r1, #8]
 8001f76:	f000 f821 	bl	8001fbc <HAL_RCC_GetSysClockFreq>
 8001f7a:	4602      	mov	r2, r0
 8001f7c:	4b0b      	ldr	r3, [pc, #44]	@ (8001fac <HAL_RCC_ClockConfig+0x1bc>)
 8001f7e:	689b      	ldr	r3, [r3, #8]
 8001f80:	091b      	lsrs	r3, r3, #4
 8001f82:	f003 030f 	and.w	r3, r3, #15
 8001f86:	490a      	ldr	r1, [pc, #40]	@ (8001fb0 <HAL_RCC_ClockConfig+0x1c0>)
 8001f88:	5ccb      	ldrb	r3, [r1, r3]
 8001f8a:	fa22 f303 	lsr.w	r3, r2, r3
 8001f8e:	4a09      	ldr	r2, [pc, #36]	@ (8001fb4 <HAL_RCC_ClockConfig+0x1c4>)
 8001f90:	6013      	str	r3, [r2, #0]
 8001f92:	4b09      	ldr	r3, [pc, #36]	@ (8001fb8 <HAL_RCC_ClockConfig+0x1c8>)
 8001f94:	681b      	ldr	r3, [r3, #0]
 8001f96:	4618      	mov	r0, r3
 8001f98:	f7fe fdb2 	bl	8000b00 <HAL_InitTick>
 8001f9c:	2300      	movs	r3, #0
 8001f9e:	4618      	mov	r0, r3
 8001fa0:	3710      	adds	r7, #16
 8001fa2:	46bd      	mov	sp, r7
 8001fa4:	bd80      	pop	{r7, pc}
 8001fa6:	bf00      	nop
 8001fa8:	40023c00 	.word	0x40023c00
 8001fac:	40023800 	.word	0x40023800
 8001fb0:	0800354c 	.word	0x0800354c
 8001fb4:	20000004 	.word	0x20000004
 8001fb8:	20000008 	.word	0x20000008

08001fbc <HAL_RCC_GetSysClockFreq>:
 8001fbc:	e92d 4fb0 	stmdb	sp!, {r4, r5, r7, r8, r9, sl, fp, lr}
 8001fc0:	b094      	sub	sp, #80	@ 0x50
 8001fc2:	af00      	add	r7, sp, #0
 8001fc4:	2300      	movs	r3, #0
 8001fc6:	647b      	str	r3, [r7, #68]	@ 0x44
 8001fc8:	2300      	movs	r3, #0
 8001fca:	64fb      	str	r3, [r7, #76]	@ 0x4c
 8001fcc:	2300      	movs	r3, #0
 8001fce:	643b      	str	r3, [r7, #64]	@ 0x40
 8001fd0:	2300      	movs	r3, #0
 8001fd2:	64bb      	str	r3, [r7, #72]	@ 0x48
 8001fd4:	4b79      	ldr	r3, [pc, #484]	@ (80021bc <HAL_RCC_GetSysClockFreq+0x200>)
 8001fd6:	689b      	ldr	r3, [r3, #8]
 8001fd8:	f003 030c 	and.w	r3, r3, #12
 8001fdc:	2b08      	cmp	r3, #8
 8001fde:	d00d      	beq.n	8001ffc <HAL_RCC_GetSysClockFreq+0x40>
 8001fe0:	2b08      	cmp	r3, #8
 8001fe2:	f200 80e1 	bhi.w	80021a8 <HAL_RCC_GetSysClockFreq+0x1ec>
 8001fe6:	2b00      	cmp	r3, #0
 8001fe8:	d002      	beq.n	8001ff0 <HAL_RCC_GetSysClockFreq+0x34>
 8001fea:	2b04      	cmp	r3, #4
 8001fec:	d003      	beq.n	8001ff6 <HAL_RCC_GetSysClockFreq+0x3a>
 8001fee:	e0db      	b.n	80021a8 <HAL_RCC_GetSysClockFreq+0x1ec>
 8001ff0:	4b73      	ldr	r3, [pc, #460]	@ (80021c0 <HAL_RCC_GetSysClockFreq+0x204>)
 8001ff2:	64bb      	str	r3, [r7, #72]	@ 0x48
 8001ff4:	e0db      	b.n	80021ae <HAL_RCC_GetSysClockFreq+0x1f2>
 8001ff6:	4b73      	ldr	r3, [pc, #460]	@ (80021c4 <HAL_RCC_GetSysClockFreq+0x208>)
 8001ff8:	64bb      	str	r3, [r7, #72]	@ 0x48
 8001ffa:	e0d8      	b.n	80021ae <HAL_RCC_GetSysClockFreq+0x1f2>
 8001ffc:	4b6f      	ldr	r3, [pc, #444]	@ (80021bc <HAL_RCC_GetSysClockFreq+0x200>)
 8001ffe:	685b      	ldr	r3, [r3, #4]
 8002000:	f003 033f 	and.w	r3, r3, #63	@ 0x3f
 8002004:	647b      	str	r3, [r7, #68]	@ 0x44
 8002006:	4b6d      	ldr	r3, [pc, #436]	@ (80021bc <HAL_RCC_GetSysClockFreq+0x200>)
 8002008:	685b      	ldr	r3, [r3, #4]
 800200a:	f403 0380 	and.w	r3, r3, #4194304	@ 0x400000
 800200e:	2b00      	cmp	r3, #0
 8002010:	d063      	beq.n	80020da <HAL_RCC_GetSysClockFreq+0x11e>
 8002012:	4b6a      	ldr	r3, [pc, #424]	@ (80021bc <HAL_RCC_GetSysClockFreq+0x200>)
 8002014:	685b      	ldr	r3, [r3, #4]
 8002016:	099b      	lsrs	r3, r3, #6
 8002018:	2200      	movs	r2, #0
 800201a:	63bb      	str	r3, [r7, #56]	@ 0x38
 800201c:	63fa      	str	r2, [r7, #60]	@ 0x3c
 800201e:	6bbb      	ldr	r3, [r7, #56]	@ 0x38
 8002020:	f3c3 0308 	ubfx	r3, r3, #0, #9
 8002024:	633b      	str	r3, [r7, #48]	@ 0x30
 8002026:	2300      	movs	r3, #0
 8002028:	637b      	str	r3, [r7, #52]	@ 0x34
 800202a:	e9d7 450c 	ldrd	r4, r5, [r7, #48]	@ 0x30
 800202e:	4622      	mov	r2, r4
 8002030:	462b      	mov	r3, r5
 8002032:	f04f 0000 	mov.w	r0, #0
 8002036:	f04f 0100 	mov.w	r1, #0
 800203a:	0159      	lsls	r1, r3, #5
 800203c:	ea41 61d2 	orr.w	r1, r1, r2, lsr #27
 8002040:	0150      	lsls	r0, r2, #5
 8002042:	4602      	mov	r2, r0
 8002044:	460b      	mov	r3, r1
 8002046:	4621      	mov	r1, r4
 8002048:	1a51      	subs	r1, r2, r1
 800204a:	6139      	str	r1, [r7, #16]
 800204c:	4629      	mov	r1, r5
 800204e:	eb63 0301 	sbc.w	r3, r3, r1
 8002052:	617b      	str	r3, [r7, #20]
 8002054:	f04f 0200 	mov.w	r2, #0
 8002058:	f04f 0300 	mov.w	r3, #0
 800205c:	e9d7 ab04 	ldrd	sl, fp, [r7, #16]
 8002060:	4659      	mov	r1, fp
 8002062:	018b      	lsls	r3, r1, #6
 8002064:	4651      	mov	r1, sl
 8002066:	ea43 6391 	orr.w	r3, r3, r1, lsr #26
 800206a:	4651      	mov	r1, sl
 800206c:	018a      	lsls	r2, r1, #6
 800206e:	4651      	mov	r1, sl
 8002070:	ebb2 0801 	subs.w	r8, r2, r1
 8002074:	4659      	mov	r1, fp
 8002076:	eb63 0901 	sbc.w	r9, r3, r1
 800207a:	f04f 0200 	mov.w	r2, #0
 800207e:	f04f 0300 	mov.w	r3, #0
 8002082:	ea4f 03c9 	mov.w	r3, r9, lsl #3
 8002086:	ea43 7358 	orr.w	r3, r3, r8, lsr #29
 800208a:	ea4f 02c8 	mov.w	r2, r8, lsl #3
 800208e:	4690      	mov	r8, r2
 8002090:	4699      	mov	r9, r3
 8002092:	4623      	mov	r3, r4
 8002094:	eb18 0303 	adds.w	r3, r8, r3
 8002098:	60bb      	str	r3, [r7, #8]
 800209a:	462b      	mov	r3, r5
 800209c:	eb49 0303 	adc.w	r3, r9, r3
 80020a0:	60fb      	str	r3, [r7, #12]
 80020a2:	f04f 0200 	mov.w	r2, #0
 80020a6:	f04f 0300 	mov.w	r3, #0
 80020aa:	e9d7 4502 	ldrd	r4, r5, [r7, #8]
 80020ae:	4629      	mov	r1, r5
 80020b0:	024b      	lsls	r3, r1, #9
 80020b2:	4621      	mov	r1, r4
 80020b4:	ea43 53d1 	orr.w	r3, r3, r1, lsr #23
 80020b8:	4621      	mov	r1, r4
 80020ba:	024a      	lsls	r2, r1, #9
 80020bc:	4610      	mov	r0, r2
 80020be:	4619      	mov	r1, r3
 80020c0:	6c7b      	ldr	r3, [r7, #68]	@ 0x44
 80020c2:	2200      	movs	r2, #0
 80020c4:	62bb      	str	r3, [r7, #40]	@ 0x28
 80020c6:	62fa      	str	r2, [r7, #44]	@ 0x2c
 80020c8:	e9d7 230a 	ldrd	r2, r3, [r7, #40]	@ 0x28
 80020cc:	f7fe f87c 	bl	80001c8 <__aeabi_uldivmod>
 80020d0:	4602      	mov	r2, r0
 80020d2:	460b      	mov	r3, r1
 80020d4:	4613      	mov	r3, r2
 80020d6:	64fb      	str	r3, [r7, #76]	@ 0x4c
 80020d8:	e058      	b.n	800218c <HAL_RCC_GetSysClockFreq+0x1d0>
 80020da:	4b38      	ldr	r3, [pc, #224]	@ (80021bc <HAL_RCC_GetSysClockFreq+0x200>)
 80020dc:	685b      	ldr	r3, [r3, #4]
 80020de:	099b      	lsrs	r3, r3, #6
 80020e0:	2200      	movs	r2, #0
 80020e2:	4618      	mov	r0, r3
 80020e4:	4611      	mov	r1, r2
 80020e6:	f3c0 0308 	ubfx	r3, r0, #0, #9
 80020ea:	623b      	str	r3, [r7, #32]
 80020ec:	2300      	movs	r3, #0
 80020ee:	627b      	str	r3, [r7, #36]	@ 0x24
 80020f0:	e9d7 8908 	ldrd	r8, r9, [r7, #32]
 80020f4:	4642      	mov	r2, r8
 80020f6:	464b      	mov	r3, r9
 80020f8:	f04f 0000 	mov.w	r0, #0
 80020fc:	f04f 0100 	mov.w	r1, #0
 8002100:	0159      	lsls	r1, r3, #5
 8002102:	ea41 61d2 	orr.w	r1, r1, r2, lsr #27
 8002106:	0150      	lsls	r0, r2, #5
 8002108:	4602      	mov	r2, r0
 800210a:	460b      	mov	r3, r1
 800210c:	4641      	mov	r1, r8
 800210e:	ebb2 0a01 	subs.w	sl, r2, r1
 8002112:	4649      	mov	r1, r9
 8002114:	eb63 0b01 	sbc.w	fp, r3, r1
 8002118:	f04f 0200 	mov.w	r2, #0
 800211c:	f04f 0300 	mov.w	r3, #0
 8002120:	ea4f 138b 	mov.w	r3, fp, lsl #6
 8002124:	ea43 639a 	orr.w	r3, r3, sl, lsr #26
 8002128:	ea4f 128a 	mov.w	r2, sl, lsl #6
 800212c:	ebb2 040a 	subs.w	r4, r2, sl
 8002130:	eb63 050b 	sbc.w	r5, r3, fp
 8002134:	f04f 0200 	mov.w	r2, #0
 8002138:	f04f 0300 	mov.w	r3, #0
 800213c:	00eb      	lsls	r3, r5, #3
 800213e:	ea43 7354 	orr.w	r3, r3, r4, lsr #29
 8002142:	00e2      	lsls	r2, r4, #3
 8002144:	4614      	mov	r4, r2
 8002146:	461d      	mov	r5, r3
 8002148:	4643      	mov	r3, r8
 800214a:	18e3      	adds	r3, r4, r3
 800214c:	603b      	str	r3, [r7, #0]
 800214e:	464b      	mov	r3, r9
 8002150:	eb45 0303 	adc.w	r3, r5, r3
 8002154:	607b      	str	r3, [r7, #4]
 8002156:	f04f 0200 	mov.w	r2, #0
 800215a:	f04f 0300 	mov.w	r3, #0
 800215e:	e9d7 4500 	ldrd	r4, r5, [r7]
 8002162:	4629      	mov	r1, r5
 8002164:	028b      	lsls	r3, r1, #10
 8002166:	4621      	mov	r1, r4
 8002168:	ea43 5391 	orr.w	r3, r3, r1, lsr #22
 800216c:	4621      	mov	r1, r4
 800216e:	028a      	lsls	r2, r1, #10
 8002170:	4610      	mov	r0, r2
 8002172:	4619      	mov	r1, r3
 8002174:	6c7b      	ldr	r3, [r7, #68]	@ 0x44
 8002176:	2200      	movs	r2, #0
 8002178:	61bb      	str	r3, [r7, #24]
 800217a:	61fa      	str	r2, [r7, #28]
 800217c:	e9d7 2306 	ldrd	r2, r3, [r7, #24]
 8002180:	f7fe f822 	bl	80001c8 <__aeabi_uldivmod>
 8002184:	4602      	mov	r2, r0
 8002186:	460b      	mov	r3, r1
 8002188:	4613      	mov	r3, r2
 800218a:	64fb      	str	r3, [r7, #76]	@ 0x4c
 800218c:	4b0b      	ldr	r3, [pc, #44]	@ (80021bc <HAL_RCC_GetSysClockFreq+0x200>)
 800218e:	685b      	ldr	r3, [r3, #4]
 8002190:	0c1b      	lsrs	r3, r3, #16
 8002192:	f003 0303 	and.w	r3, r3, #3
 8002196:	3301      	adds	r3, #1
 8002198:	005b      	lsls	r3, r3, #1
 800219a:	643b      	str	r3, [r7, #64]	@ 0x40
 800219c:	6cfa      	ldr	r2, [r7, #76]	@ 0x4c
 800219e:	6c3b      	ldr	r3, [r7, #64]	@ 0x40
 80021a0:	fbb2 f3f3 	udiv	r3, r2, r3
 80021a4:	64bb      	str	r3, [r7, #72]	@ 0x48
 80021a6:	e002      	b.n	80021ae <HAL_RCC_GetSysClockFreq+0x1f2>
 80021a8:	4b05      	ldr	r3, [pc, #20]	@ (80021c0 <HAL_RCC_GetSysClockFreq+0x204>)
 80021aa:	64bb      	str	r3, [r7, #72]	@ 0x48
 80021ac:	bf00      	nop
 80021ae:	6cbb      	ldr	r3, [r7, #72]	@ 0x48
 80021b0:	4618      	mov	r0, r3
 80021b2:	3750      	adds	r7, #80	@ 0x50
 80021b4:	46bd      	mov	sp, r7
 80021b6:	e8bd 8fb0 	ldmia.w	sp!, {r4, r5, r7, r8, r9, sl, fp, pc}
 80021ba:	bf00      	nop
 80021bc:	40023800 	.word	0x40023800
 80021c0:	00f42400 	.word	0x00f42400
 80021c4:	007a1200 	.word	0x007a1200

080021c8 <HAL_RCC_GetHCLKFreq>:
 80021c8:	b480      	push	{r7}
 80021ca:	af00      	add	r7, sp, #0
 80021cc:	4b03      	ldr	r3, [pc, #12]	@ (80021dc <HAL_RCC_GetHCLKFreq+0x14>)
 80021ce:	681b      	ldr	r3, [r3, #0]
 80021d0:	4618      	mov	r0, r3
 80021d2:	46bd      	mov	sp, r7
 80021d4:	f85d 7b04 	ldr.w	r7, [sp], #4
 80021d8:	4770      	bx	lr
 80021da:	bf00      	nop
 80021dc:	20000004 	.word	0x20000004

080021e0 <HAL_RCC_GetPCLK1Freq>:
 80021e0:	b580      	push	{r7, lr}
 80021e2:	af00      	add	r7, sp, #0
 80021e4:	f7ff fff0 	bl	80021c8 <HAL_RCC_GetHCLKFreq>
 80021e8:	4602      	mov	r2, r0
 80021ea:	4b05      	ldr	r3, [pc, #20]	@ (8002200 <HAL_RCC_GetPCLK1Freq+0x20>)
 80021ec:	689b      	ldr	r3, [r3, #8]
 80021ee:	0a9b      	lsrs	r3, r3, #10
 80021f0:	f003 0307 	and.w	r3, r3, #7
 80021f4:	4903      	ldr	r1, [pc, #12]	@ (8002204 <HAL_RCC_GetPCLK1Freq+0x24>)
 80021f6:	5ccb      	ldrb	r3, [r1, r3]
 80021f8:	fa22 f303 	lsr.w	r3, r2, r3
 80021fc:	4618      	mov	r0, r3
 80021fe:	bd80      	pop	{r7, pc}
 8002200:	40023800 	.word	0x40023800
 8002204:	0800355c 	.word	0x0800355c

08002208 <HAL_RCC_GetPCLK2Freq>:
 8002208:	b580      	push	{r7, lr}
 800220a:	af00      	add	r7, sp, #0
 800220c:	f7ff ffdc 	bl	80021c8 <HAL_RCC_GetHCLKFreq>
 8002210:	4602      	mov	r2, r0
 8002212:	4b05      	ldr	r3, [pc, #20]	@ (8002228 <HAL_RCC_GetPCLK2Freq+0x20>)
 8002214:	689b      	ldr	r3, [r3, #8]
 8002216:	0b5b      	lsrs	r3, r3, #13
 8002218:	f003 0307 	and.w	r3, r3, #7
 800221c:	4903      	ldr	r1, [pc, #12]	@ (800222c <HAL_RCC_GetPCLK2Freq+0x24>)
 800221e:	5ccb      	ldrb	r3, [r1, r3]
 8002220:	fa22 f303 	lsr.w	r3, r2, r3
 8002224:	4618      	mov	r0, r3
 8002226:	bd80      	pop	{r7, pc}
 8002228:	40023800 	.word	0x40023800
 800222c:	0800355c 	.word	0x0800355c

08002230 <HAL_UART_Init>:
 8002230:	b580      	push	{r7, lr}
 8002232:	b082      	sub	sp, #8
 8002234:	af00      	add	r7, sp, #0
 8002236:	6078      	str	r0, [r7, #4]
 8002238:	687b      	ldr	r3, [r7, #4]
 800223a:	2b00      	cmp	r3, #0
 800223c:	d101      	bne.n	8002242 <HAL_UART_Init+0x12>
 800223e:	2301      	movs	r3, #1
 8002240:	e042      	b.n	80022c8 <HAL_UART_Init+0x98>
 8002242:	687b      	ldr	r3, [r7, #4]
 8002244:	f893 3041 	ldrb.w	r3, [r3, #65]	@ 0x41
 8002248:	b2db      	uxtb	r3, r3
 800224a:	2b00      	cmp	r3, #0
 800224c:	d106      	bne.n	800225c <HAL_UART_Init+0x2c>
 800224e:	687b      	ldr	r3, [r7, #4]
 8002250:	2200      	movs	r2, #0
 8002252:	f883 2040 	strb.w	r2, [r3, #64]	@ 0x40
 8002256:	6878      	ldr	r0, [r7, #4]
 8002258:	f7fe fb84 	bl	8000964 <HAL_UART_MspInit>
 800225c:	687b      	ldr	r3, [r7, #4]
 800225e:	2224      	movs	r2, #36	@ 0x24
 8002260:	f883 2041 	strb.w	r2, [r3, #65]	@ 0x41
 8002264:	687b      	ldr	r3, [r7, #4]
 8002266:	681b      	ldr	r3, [r3, #0]
 8002268:	68da      	ldr	r2, [r3, #12]
 800226a:	687b      	ldr	r3, [r7, #4]
 800226c:	681b      	ldr	r3, [r3, #0]
 800226e:	f422 5200 	bic.w	r2, r2, #8192	@ 0x2000
 8002272:	60da      	str	r2, [r3, #12]
 8002274:	6878      	ldr	r0, [r7, #4]
 8002276:	f000 febd 	bl	8002ff4 <UART_SetConfig>
 800227a:	687b      	ldr	r3, [r7, #4]
 800227c:	681b      	ldr	r3, [r3, #0]
 800227e:	691a      	ldr	r2, [r3, #16]
 8002280:	687b      	ldr	r3, [r7, #4]
 8002282:	681b      	ldr	r3, [r3, #0]
 8002284:	f422 4290 	bic.w	r2, r2, #18432	@ 0x4800
 8002288:	611a      	str	r2, [r3, #16]
 800228a:	687b      	ldr	r3, [r7, #4]
 800228c:	681b      	ldr	r3, [r3, #0]
 800228e:	695a      	ldr	r2, [r3, #20]
 8002290:	687b      	ldr	r3, [r7, #4]
 8002292:	681b      	ldr	r3, [r3, #0]
 8002294:	f022 022a 	bic.w	r2, r2, #42	@ 0x2a
 8002298:	615a      	str	r2, [r3, #20]
 800229a:	687b      	ldr	r3, [r7, #4]
 800229c:	681b      	ldr	r3, [r3, #0]
 800229e:	68da      	ldr	r2, [r3, #12]
 80022a0:	687b      	ldr	r3, [r7, #4]
 80022a2:	681b      	ldr	r3, [r3, #0]
 80022a4:	f442 5200 	orr.w	r2, r2, #8192	@ 0x2000
 80022a8:	60da      	str	r2, [r3, #12]
 80022aa:	687b      	ldr	r3, [r7, #4]
 80022ac:	2200      	movs	r2, #0
 80022ae:	645a      	str	r2, [r3, #68]	@ 0x44
 80022b0:	687b      	ldr	r3, [r7, #4]
 80022b2:	2220      	movs	r2, #32
 80022b4:	f883 2041 	strb.w	r2, [r3, #65]	@ 0x41
 80022b8:	687b      	ldr	r3, [r7, #4]
 80022ba:	2220      	movs	r2, #32
 80022bc:	f883 2042 	strb.w	r2, [r3, #66]	@ 0x42
 80022c0:	687b      	ldr	r3, [r7, #4]
 80022c2:	2200      	movs	r2, #0
 80022c4:	635a      	str	r2, [r3, #52]	@ 0x34
 80022c6:	2300      	movs	r3, #0
 80022c8:	4618      	mov	r0, r3
 80022ca:	3708      	adds	r7, #8
 80022cc:	46bd      	mov	sp, r7
 80022ce:	bd80      	pop	{r7, pc}

080022d0 <HAL_UARTEx_ReceiveToIdle_DMA>:
 80022d0:	b580      	push	{r7, lr}
 80022d2:	b08c      	sub	sp, #48	@ 0x30
 80022d4:	af00      	add	r7, sp, #0
 80022d6:	60f8      	str	r0, [r7, #12]
 80022d8:	60b9      	str	r1, [r7, #8]
 80022da:	4613      	mov	r3, r2
 80022dc:	80fb      	strh	r3, [r7, #6]
 80022de:	68fb      	ldr	r3, [r7, #12]
 80022e0:	f893 3042 	ldrb.w	r3, [r3, #66]	@ 0x42
 80022e4:	b2db      	uxtb	r3, r3
 80022e6:	2b20      	cmp	r3, #32
 80022e8:	d146      	bne.n	8002378 <HAL_UARTEx_ReceiveToIdle_DMA+0xa8>
 80022ea:	68bb      	ldr	r3, [r7, #8]
 80022ec:	2b00      	cmp	r3, #0
 80022ee:	d002      	beq.n	80022f6 <HAL_UARTEx_ReceiveToIdle_DMA+0x26>
 80022f0:	88fb      	ldrh	r3, [r7, #6]
 80022f2:	2b00      	cmp	r3, #0
 80022f4:	d101      	bne.n	80022fa <HAL_UARTEx_ReceiveToIdle_DMA+0x2a>
 80022f6:	2301      	movs	r3, #1
 80022f8:	e03f      	b.n	800237a <HAL_UARTEx_ReceiveToIdle_DMA+0xaa>
 80022fa:	68fb      	ldr	r3, [r7, #12]
 80022fc:	2201      	movs	r2, #1
 80022fe:	631a      	str	r2, [r3, #48]	@ 0x30
 8002300:	68fb      	ldr	r3, [r7, #12]
 8002302:	2200      	movs	r2, #0
 8002304:	635a      	str	r2, [r3, #52]	@ 0x34
 8002306:	88fb      	ldrh	r3, [r7, #6]
 8002308:	461a      	mov	r2, r3
 800230a:	68b9      	ldr	r1, [r7, #8]
 800230c:	68f8      	ldr	r0, [r7, #12]
 800230e:	f000 fc09 	bl	8002b24 <UART_Start_Receive_DMA>
 8002312:	4603      	mov	r3, r0
 8002314:	f887 302f 	strb.w	r3, [r7, #47]	@ 0x2f
 8002318:	68fb      	ldr	r3, [r7, #12]
 800231a:	6b1b      	ldr	r3, [r3, #48]	@ 0x30
 800231c:	2b01      	cmp	r3, #1
 800231e:	d125      	bne.n	800236c <HAL_UARTEx_ReceiveToIdle_DMA+0x9c>
 8002320:	2300      	movs	r3, #0
 8002322:	613b      	str	r3, [r7, #16]
 8002324:	68fb      	ldr	r3, [r7, #12]
 8002326:	681b      	ldr	r3, [r3, #0]
 8002328:	681b      	ldr	r3, [r3, #0]
 800232a:	613b      	str	r3, [r7, #16]
 800232c:	68fb      	ldr	r3, [r7, #12]
 800232e:	681b      	ldr	r3, [r3, #0]
 8002330:	685b      	ldr	r3, [r3, #4]
 8002332:	613b      	str	r3, [r7, #16]
 8002334:	693b      	ldr	r3, [r7, #16]
 8002336:	68fb      	ldr	r3, [r7, #12]
 8002338:	681b      	ldr	r3, [r3, #0]
 800233a:	330c      	adds	r3, #12
 800233c:	61bb      	str	r3, [r7, #24]
 800233e:	69bb      	ldr	r3, [r7, #24]
 8002340:	e853 3f00 	ldrex	r3, [r3]
 8002344:	617b      	str	r3, [r7, #20]
 8002346:	697b      	ldr	r3, [r7, #20]
 8002348:	f043 0310 	orr.w	r3, r3, #16
 800234c:	62bb      	str	r3, [r7, #40]	@ 0x28
 800234e:	68fb      	ldr	r3, [r7, #12]
 8002350:	681b      	ldr	r3, [r3, #0]
 8002352:	330c      	adds	r3, #12
 8002354:	6aba      	ldr	r2, [r7, #40]	@ 0x28
 8002356:	627a      	str	r2, [r7, #36]	@ 0x24
 8002358:	623b      	str	r3, [r7, #32]
 800235a:	6a39      	ldr	r1, [r7, #32]
 800235c:	6a7a      	ldr	r2, [r7, #36]	@ 0x24
 800235e:	e841 2300 	strex	r3, r2, [r1]
 8002362:	61fb      	str	r3, [r7, #28]
 8002364:	69fb      	ldr	r3, [r7, #28]
 8002366:	2b00      	cmp	r3, #0
 8002368:	d1e5      	bne.n	8002336 <HAL_UARTEx_ReceiveToIdle_DMA+0x66>
 800236a:	e002      	b.n	8002372 <HAL_UARTEx_ReceiveToIdle_DMA+0xa2>
 800236c:	2301      	movs	r3, #1
 800236e:	f887 302f 	strb.w	r3, [r7, #47]	@ 0x2f
 8002372:	f897 302f 	ldrb.w	r3, [r7, #47]	@ 0x2f
 8002376:	e000      	b.n	800237a <HAL_UARTEx_ReceiveToIdle_DMA+0xaa>
 8002378:	2302      	movs	r3, #2
 800237a:	4618      	mov	r0, r3
 800237c:	3730      	adds	r7, #48	@ 0x30
 800237e:	46bd      	mov	sp, r7
 8002380:	bd80      	pop	{r7, pc}
	...

08002384 <HAL_UART_IRQHandler>:
 8002384:	b580      	push	{r7, lr}
 8002386:	b0ba      	sub	sp, #232	@ 0xe8
 8002388:	af00      	add	r7, sp, #0
 800238a:	6078      	str	r0, [r7, #4]
 800238c:	687b      	ldr	r3, [r7, #4]
 800238e:	681b      	ldr	r3, [r3, #0]
 8002390:	681b      	ldr	r3, [r3, #0]
 8002392:	f8c7 30e4 	str.w	r3, [r7, #228]	@ 0xe4
 8002396:	687b      	ldr	r3, [r7, #4]
 8002398:	681b      	ldr	r3, [r3, #0]
 800239a:	68db      	ldr	r3, [r3, #12]
 800239c:	f8c7 30e0 	str.w	r3, [r7, #224]	@ 0xe0
 80023a0:	687b      	ldr	r3, [r7, #4]
 80023a2:	681b      	ldr	r3, [r3, #0]
 80023a4:	695b      	ldr	r3, [r3, #20]
 80023a6:	f8c7 30dc 	str.w	r3, [r7, #220]	@ 0xdc
 80023aa:	2300      	movs	r3, #0
 80023ac:	f8c7 30d8 	str.w	r3, [r7, #216]	@ 0xd8
 80023b0:	2300      	movs	r3, #0
 80023b2:	f8c7 30d4 	str.w	r3, [r7, #212]	@ 0xd4
 80023b6:	f8d7 30e4 	ldr.w	r3, [r7, #228]	@ 0xe4
 80023ba:	f003 030f 	and.w	r3, r3, #15
 80023be:	f8c7 30d8 	str.w	r3, [r7, #216]	@ 0xd8
 80023c2:	f8d7 30d8 	ldr.w	r3, [r7, #216]	@ 0xd8
 80023c6:	2b00      	cmp	r3, #0
 80023c8:	d10f      	bne.n	80023ea <HAL_UART_IRQHandler+0x66>
 80023ca:	f8d7 30e4 	ldr.w	r3, [r7, #228]	@ 0xe4
 80023ce:	f003 0320 	and.w	r3, r3, #32
 80023d2:	2b00      	cmp	r3, #0
 80023d4:	d009      	beq.n	80023ea <HAL_UART_IRQHandler+0x66>
 80023d6:	f8d7 30e0 	ldr.w	r3, [r7, #224]	@ 0xe0
 80023da:	f003 0320 	and.w	r3, r3, #32
 80023de:	2b00      	cmp	r3, #0
 80023e0:	d003      	beq.n	80023ea <HAL_UART_IRQHandler+0x66>
 80023e2:	6878      	ldr	r0, [r7, #4]
 80023e4:	f000 fd48 	bl	8002e78 <UART_Receive_IT>
 80023e8:	e273      	b.n	80028d2 <HAL_UART_IRQHandler+0x54e>
 80023ea:	f8d7 30d8 	ldr.w	r3, [r7, #216]	@ 0xd8
 80023ee:	2b00      	cmp	r3, #0
 80023f0:	f000 80de 	beq.w	80025b0 <HAL_UART_IRQHandler+0x22c>
 80023f4:	f8d7 30dc 	ldr.w	r3, [r7, #220]	@ 0xdc
 80023f8:	f003 0301 	and.w	r3, r3, #1
 80023fc:	2b00      	cmp	r3, #0
 80023fe:	d106      	bne.n	800240e <HAL_UART_IRQHandler+0x8a>
 8002400:	f8d7 30e0 	ldr.w	r3, [r7, #224]	@ 0xe0
 8002404:	f403 7390 	and.w	r3, r3, #288	@ 0x120
 8002408:	2b00      	cmp	r3, #0
 800240a:	f000 80d1 	beq.w	80025b0 <HAL_UART_IRQHandler+0x22c>
 800240e:	f8d7 30e4 	ldr.w	r3, [r7, #228]	@ 0xe4
 8002412:	f003 0301 	and.w	r3, r3, #1
 8002416:	2b00      	cmp	r3, #0
 8002418:	d00b      	beq.n	8002432 <HAL_UART_IRQHandler+0xae>
 800241a:	f8d7 30e0 	ldr.w	r3, [r7, #224]	@ 0xe0
 800241e:	f403 7380 	and.w	r3, r3, #256	@ 0x100
 8002422:	2b00      	cmp	r3, #0
 8002424:	d005      	beq.n	8002432 <HAL_UART_IRQHandler+0xae>
 8002426:	687b      	ldr	r3, [r7, #4]
 8002428:	6c5b      	ldr	r3, [r3, #68]	@ 0x44
 800242a:	f043 0201 	orr.w	r2, r3, #1
 800242e:	687b      	ldr	r3, [r7, #4]
 8002430:	645a      	str	r2, [r3, #68]	@ 0x44
 8002432:	f8d7 30e4 	ldr.w	r3, [r7, #228]	@ 0xe4
 8002436:	f003 0304 	and.w	r3, r3, #4
 800243a:	2b00      	cmp	r3, #0
 800243c:	d00b      	beq.n	8002456 <HAL_UART_IRQHandler+0xd2>
 800243e:	f8d7 30dc 	ldr.w	r3, [r7, #220]	@ 0xdc
 8002442:	f003 0301 	and.w	r3, r3, #1
 8002446:	2b00      	cmp	r3, #0
 8002448:	d005      	beq.n	8002456 <HAL_UART_IRQHandler+0xd2>
 800244a:	687b      	ldr	r3, [r7, #4]
 800244c:	6c5b      	ldr	r3, [r3, #68]	@ 0x44
 800244e:	f043 0202 	orr.w	r2, r3, #2
 8002452:	687b      	ldr	r3, [r7, #4]
 8002454:	645a      	str	r2, [r3, #68]	@ 0x44
 8002456:	f8d7 30e4 	ldr.w	r3, [r7, #228]	@ 0xe4
 800245a:	f003 0302 	and.w	r3, r3, #2
 800245e:	2b00      	cmp	r3, #0
 8002460:	d00b      	beq.n	800247a <HAL_UART_IRQHandler+0xf6>
 8002462:	f8d7 30dc 	ldr.w	r3, [r7, #220]	@ 0xdc
 8002466:	f003 0301 	and.w	r3, r3, #1
 800246a:	2b00      	cmp	r3, #0
 800246c:	d005      	beq.n	800247a <HAL_UART_IRQHandler+0xf6>
 800246e:	687b      	ldr	r3, [r7, #4]
 8002470:	6c5b      	ldr	r3, [r3, #68]	@ 0x44
 8002472:	f043 0204 	orr.w	r2, r3, #4
 8002476:	687b      	ldr	r3, [r7, #4]
 8002478:	645a      	str	r2, [r3, #68]	@ 0x44
 800247a:	f8d7 30e4 	ldr.w	r3, [r7, #228]	@ 0xe4
 800247e:	f003 0308 	and.w	r3, r3, #8
 8002482:	2b00      	cmp	r3, #0
 8002484:	d011      	beq.n	80024aa <HAL_UART_IRQHandler+0x126>
 8002486:	f8d7 30e0 	ldr.w	r3, [r7, #224]	@ 0xe0
 800248a:	f003 0320 	and.w	r3, r3, #32
 800248e:	2b00      	cmp	r3, #0
 8002490:	d105      	bne.n	800249e <HAL_UART_IRQHandler+0x11a>
 8002492:	f8d7 30dc 	ldr.w	r3, [r7, #220]	@ 0xdc
 8002496:	f003 0301 	and.w	r3, r3, #1
 800249a:	2b00      	cmp	r3, #0
 800249c:	d005      	beq.n	80024aa <HAL_UART_IRQHandler+0x126>
 800249e:	687b      	ldr	r3, [r7, #4]
 80024a0:	6c5b      	ldr	r3, [r3, #68]	@ 0x44
 80024a2:	f043 0208 	orr.w	r2, r3, #8
 80024a6:	687b      	ldr	r3, [r7, #4]
 80024a8:	645a      	str	r2, [r3, #68]	@ 0x44
 80024aa:	687b      	ldr	r3, [r7, #4]
 80024ac:	6c5b      	ldr	r3, [r3, #68]	@ 0x44
 80024ae:	2b00      	cmp	r3, #0
 80024b0:	f000 820a 	beq.w	80028c8 <HAL_UART_IRQHandler+0x544>
 80024b4:	f8d7 30e4 	ldr.w	r3, [r7, #228]	@ 0xe4
 80024b8:	f003 0320 	and.w	r3, r3, #32
 80024bc:	2b00      	cmp	r3, #0
 80024be:	d008      	beq.n	80024d2 <HAL_UART_IRQHandler+0x14e>
 80024c0:	f8d7 30e0 	ldr.w	r3, [r7, #224]	@ 0xe0
 80024c4:	f003 0320 	and.w	r3, r3, #32
 80024c8:	2b00      	cmp	r3, #0
 80024ca:	d002      	beq.n	80024d2 <HAL_UART_IRQHandler+0x14e>
 80024cc:	6878      	ldr	r0, [r7, #4]
 80024ce:	f000 fcd3 	bl	8002e78 <UART_Receive_IT>
 80024d2:	687b      	ldr	r3, [r7, #4]
 80024d4:	681b      	ldr	r3, [r3, #0]
 80024d6:	695b      	ldr	r3, [r3, #20]
 80024d8:	f003 0340 	and.w	r3, r3, #64	@ 0x40
 80024dc:	2b40      	cmp	r3, #64	@ 0x40
 80024de:	bf0c      	ite	eq
 80024e0:	2301      	moveq	r3, #1
 80024e2:	2300      	movne	r3, #0
 80024e4:	b2db      	uxtb	r3, r3
 80024e6:	f8c7 30d4 	str.w	r3, [r7, #212]	@ 0xd4
 80024ea:	687b      	ldr	r3, [r7, #4]
 80024ec:	6c5b      	ldr	r3, [r3, #68]	@ 0x44
 80024ee:	f003 0308 	and.w	r3, r3, #8
 80024f2:	2b00      	cmp	r3, #0
 80024f4:	d103      	bne.n	80024fe <HAL_UART_IRQHandler+0x17a>
 80024f6:	f8d7 30d4 	ldr.w	r3, [r7, #212]	@ 0xd4
 80024fa:	2b00      	cmp	r3, #0
 80024fc:	d04f      	beq.n	800259e <HAL_UART_IRQHandler+0x21a>
 80024fe:	6878      	ldr	r0, [r7, #4]
 8002500:	f000 fbde 	bl	8002cc0 <UART_EndRxTransfer>
 8002504:	687b      	ldr	r3, [r7, #4]
 8002506:	681b      	ldr	r3, [r3, #0]
 8002508:	695b      	ldr	r3, [r3, #20]
 800250a:	f003 0340 	and.w	r3, r3, #64	@ 0x40
 800250e:	2b40      	cmp	r3, #64	@ 0x40
 8002510:	d141      	bne.n	8002596 <HAL_UART_IRQHandler+0x212>
 8002512:	687b      	ldr	r3, [r7, #4]
 8002514:	681b      	ldr	r3, [r3, #0]
 8002516:	3314      	adds	r3, #20
 8002518:	f8c7 309c 	str.w	r3, [r7, #156]	@ 0x9c
 800251c:	f8d7 309c 	ldr.w	r3, [r7, #156]	@ 0x9c
 8002520:	e853 3f00 	ldrex	r3, [r3]
 8002524:	f8c7 3098 	str.w	r3, [r7, #152]	@ 0x98
 8002528:	f8d7 3098 	ldr.w	r3, [r7, #152]	@ 0x98
 800252c:	f023 0340 	bic.w	r3, r3, #64	@ 0x40
 8002530:	f8c7 30d0 	str.w	r3, [r7, #208]	@ 0xd0
 8002534:	687b      	ldr	r3, [r7, #4]
 8002536:	681b      	ldr	r3, [r3, #0]
 8002538:	3314      	adds	r3, #20
 800253a:	f8d7 20d0 	ldr.w	r2, [r7, #208]	@ 0xd0
 800253e:	f8c7 20a8 	str.w	r2, [r7, #168]	@ 0xa8
 8002542:	f8c7 30a4 	str.w	r3, [r7, #164]	@ 0xa4
 8002546:	f8d7 10a4 	ldr.w	r1, [r7, #164]	@ 0xa4
 800254a:	f8d7 20a8 	ldr.w	r2, [r7, #168]	@ 0xa8
 800254e:	e841 2300 	strex	r3, r2, [r1]
 8002552:	f8c7 30a0 	str.w	r3, [r7, #160]	@ 0xa0
 8002556:	f8d7 30a0 	ldr.w	r3, [r7, #160]	@ 0xa0
 800255a:	2b00      	cmp	r3, #0
 800255c:	d1d9      	bne.n	8002512 <HAL_UART_IRQHandler+0x18e>
 800255e:	687b      	ldr	r3, [r7, #4]
 8002560:	6bdb      	ldr	r3, [r3, #60]	@ 0x3c
 8002562:	2b00      	cmp	r3, #0
 8002564:	d013      	beq.n	800258e <HAL_UART_IRQHandler+0x20a>
 8002566:	687b      	ldr	r3, [r7, #4]
 8002568:	6bdb      	ldr	r3, [r3, #60]	@ 0x3c
 800256a:	4a8a      	ldr	r2, [pc, #552]	@ (8002794 <HAL_UART_IRQHandler+0x410>)
 800256c:	651a      	str	r2, [r3, #80]	@ 0x50
 800256e:	687b      	ldr	r3, [r7, #4]
 8002570:	6bdb      	ldr	r3, [r3, #60]	@ 0x3c
 8002572:	4618      	mov	r0, r3
 8002574:	f7fe fd9c 	bl	80010b0 <HAL_DMA_Abort_IT>
 8002578:	4603      	mov	r3, r0
 800257a:	2b00      	cmp	r3, #0
 800257c:	d016      	beq.n	80025ac <HAL_UART_IRQHandler+0x228>
 800257e:	687b      	ldr	r3, [r7, #4]
 8002580:	6bdb      	ldr	r3, [r3, #60]	@ 0x3c
 8002582:	6d1b      	ldr	r3, [r3, #80]	@ 0x50
 8002584:	687a      	ldr	r2, [r7, #4]
 8002586:	6bd2      	ldr	r2, [r2, #60]	@ 0x3c
 8002588:	4610      	mov	r0, r2
 800258a:	4798      	blx	r3
 800258c:	e00e      	b.n	80025ac <HAL_UART_IRQHandler+0x228>
 800258e:	6878      	ldr	r0, [r7, #4]
 8002590:	f000 f9c0 	bl	8002914 <HAL_UART_ErrorCallback>
 8002594:	e00a      	b.n	80025ac <HAL_UART_IRQHandler+0x228>
 8002596:	6878      	ldr	r0, [r7, #4]
 8002598:	f000 f9bc 	bl	8002914 <HAL_UART_ErrorCallback>
 800259c:	e006      	b.n	80025ac <HAL_UART_IRQHandler+0x228>
 800259e:	6878      	ldr	r0, [r7, #4]
 80025a0:	f000 f9b8 	bl	8002914 <HAL_UART_ErrorCallback>
 80025a4:	687b      	ldr	r3, [r7, #4]
 80025a6:	2200      	movs	r2, #0
 80025a8:	645a      	str	r2, [r3, #68]	@ 0x44
 80025aa:	e18d      	b.n	80028c8 <HAL_UART_IRQHandler+0x544>
 80025ac:	bf00      	nop
 80025ae:	e18b      	b.n	80028c8 <HAL_UART_IRQHandler+0x544>
 80025b0:	687b      	ldr	r3, [r7, #4]
 80025b2:	6b1b      	ldr	r3, [r3, #48]	@ 0x30
 80025b4:	2b01      	cmp	r3, #1
 80025b6:	f040 8167 	bne.w	8002888 <HAL_UART_IRQHandler+0x504>
 80025ba:	f8d7 30e4 	ldr.w	r3, [r7, #228]	@ 0xe4
 80025be:	f003 0310 	and.w	r3, r3, #16
 80025c2:	2b00      	cmp	r3, #0
 80025c4:	f000 8160 	beq.w	8002888 <HAL_UART_IRQHandler+0x504>
 80025c8:	f8d7 30e0 	ldr.w	r3, [r7, #224]	@ 0xe0
 80025cc:	f003 0310 	and.w	r3, r3, #16
 80025d0:	2b00      	cmp	r3, #0
 80025d2:	f000 8159 	beq.w	8002888 <HAL_UART_IRQHandler+0x504>
 80025d6:	2300      	movs	r3, #0
 80025d8:	60bb      	str	r3, [r7, #8]
 80025da:	687b      	ldr	r3, [r7, #4]
 80025dc:	681b      	ldr	r3, [r3, #0]
 80025de:	681b      	ldr	r3, [r3, #0]
 80025e0:	60bb      	str	r3, [r7, #8]
 80025e2:	687b      	ldr	r3, [r7, #4]
 80025e4:	681b      	ldr	r3, [r3, #0]
 80025e6:	685b      	ldr	r3, [r3, #4]
 80025e8:	60bb      	str	r3, [r7, #8]
 80025ea:	68bb      	ldr	r3, [r7, #8]
 80025ec:	687b      	ldr	r3, [r7, #4]
 80025ee:	681b      	ldr	r3, [r3, #0]
 80025f0:	695b      	ldr	r3, [r3, #20]
 80025f2:	f003 0340 	and.w	r3, r3, #64	@ 0x40
 80025f6:	2b40      	cmp	r3, #64	@ 0x40
 80025f8:	f040 80ce 	bne.w	8002798 <HAL_UART_IRQHandler+0x414>
 80025fc:	687b      	ldr	r3, [r7, #4]
 80025fe:	6bdb      	ldr	r3, [r3, #60]	@ 0x3c
 8002600:	681b      	ldr	r3, [r3, #0]
 8002602:	685b      	ldr	r3, [r3, #4]
 8002604:	f8a7 30be 	strh.w	r3, [r7, #190]	@ 0xbe
 8002608:	f8b7 30be 	ldrh.w	r3, [r7, #190]	@ 0xbe
 800260c:	2b00      	cmp	r3, #0
 800260e:	f000 80a9 	beq.w	8002764 <HAL_UART_IRQHandler+0x3e0>
 8002612:	687b      	ldr	r3, [r7, #4]
 8002614:	8d9b      	ldrh	r3, [r3, #44]	@ 0x2c
 8002616:	f8b7 20be 	ldrh.w	r2, [r7, #190]	@ 0xbe
 800261a:	429a      	cmp	r2, r3
 800261c:	f080 80a2 	bcs.w	8002764 <HAL_UART_IRQHandler+0x3e0>
 8002620:	687b      	ldr	r3, [r7, #4]
 8002622:	f8b7 20be 	ldrh.w	r2, [r7, #190]	@ 0xbe
 8002626:	85da      	strh	r2, [r3, #46]	@ 0x2e
 8002628:	687b      	ldr	r3, [r7, #4]
 800262a:	6bdb      	ldr	r3, [r3, #60]	@ 0x3c
 800262c:	69db      	ldr	r3, [r3, #28]
 800262e:	f5b3 7f80 	cmp.w	r3, #256	@ 0x100
 8002632:	f000 8088 	beq.w	8002746 <HAL_UART_IRQHandler+0x3c2>
 8002636:	687b      	ldr	r3, [r7, #4]
 8002638:	681b      	ldr	r3, [r3, #0]
 800263a:	330c      	adds	r3, #12
 800263c:	f8c7 3088 	str.w	r3, [r7, #136]	@ 0x88
 8002640:	f8d7 3088 	ldr.w	r3, [r7, #136]	@ 0x88
 8002644:	e853 3f00 	ldrex	r3, [r3]
 8002648:	f8c7 3084 	str.w	r3, [r7, #132]	@ 0x84
 800264c:	f8d7 3084 	ldr.w	r3, [r7, #132]	@ 0x84
 8002650:	f423 7380 	bic.w	r3, r3, #256	@ 0x100
 8002654:	f8c7 30b8 	str.w	r3, [r7, #184]	@ 0xb8
 8002658:	687b      	ldr	r3, [r7, #4]
 800265a:	681b      	ldr	r3, [r3, #0]
 800265c:	330c      	adds	r3, #12
 800265e:	f8d7 20b8 	ldr.w	r2, [r7, #184]	@ 0xb8
 8002662:	f8c7 2094 	str.w	r2, [r7, #148]	@ 0x94
 8002666:	f8c7 3090 	str.w	r3, [r7, #144]	@ 0x90
 800266a:	f8d7 1090 	ldr.w	r1, [r7, #144]	@ 0x90
 800266e:	f8d7 2094 	ldr.w	r2, [r7, #148]	@ 0x94
 8002672:	e841 2300 	strex	r3, r2, [r1]
 8002676:	f8c7 308c 	str.w	r3, [r7, #140]	@ 0x8c
 800267a:	f8d7 308c 	ldr.w	r3, [r7, #140]	@ 0x8c
 800267e:	2b00      	cmp	r3, #0
 8002680:	d1d9      	bne.n	8002636 <HAL_UART_IRQHandler+0x2b2>
 8002682:	687b      	ldr	r3, [r7, #4]
 8002684:	681b      	ldr	r3, [r3, #0]
 8002686:	3314      	adds	r3, #20
 8002688:	677b      	str	r3, [r7, #116]	@ 0x74
 800268a:	6f7b      	ldr	r3, [r7, #116]	@ 0x74
 800268c:	e853 3f00 	ldrex	r3, [r3]
 8002690:	673b      	str	r3, [r7, #112]	@ 0x70
 8002692:	6f3b      	ldr	r3, [r7, #112]	@ 0x70
 8002694:	f023 0301 	bic.w	r3, r3, #1
 8002698:	f8c7 30b4 	str.w	r3, [r7, #180]	@ 0xb4
 800269c:	687b      	ldr	r3, [r7, #4]
 800269e:	681b      	ldr	r3, [r3, #0]
 80026a0:	3314      	adds	r3, #20
 80026a2:	f8d7 20b4 	ldr.w	r2, [r7, #180]	@ 0xb4
 80026a6:	f8c7 2080 	str.w	r2, [r7, #128]	@ 0x80
 80026aa:	67fb      	str	r3, [r7, #124]	@ 0x7c
 80026ac:	6ff9      	ldr	r1, [r7, #124]	@ 0x7c
 80026ae:	f8d7 2080 	ldr.w	r2, [r7, #128]	@ 0x80
 80026b2:	e841 2300 	strex	r3, r2, [r1]
 80026b6:	67bb      	str	r3, [r7, #120]	@ 0x78
 80026b8:	6fbb      	ldr	r3, [r7, #120]	@ 0x78
 80026ba:	2b00      	cmp	r3, #0
 80026bc:	d1e1      	bne.n	8002682 <HAL_UART_IRQHandler+0x2fe>
 80026be:	687b      	ldr	r3, [r7, #4]
 80026c0:	681b      	ldr	r3, [r3, #0]
 80026c2:	3314      	adds	r3, #20
 80026c4:	663b      	str	r3, [r7, #96]	@ 0x60
 80026c6:	6e3b      	ldr	r3, [r7, #96]	@ 0x60
 80026c8:	e853 3f00 	ldrex	r3, [r3]
 80026cc:	65fb      	str	r3, [r7, #92]	@ 0x5c
 80026ce:	6dfb      	ldr	r3, [r7, #92]	@ 0x5c
 80026d0:	f023 0340 	bic.w	r3, r3, #64	@ 0x40
 80026d4:	f8c7 30b0 	str.w	r3, [r7, #176]	@ 0xb0
 80026d8:	687b      	ldr	r3, [r7, #4]
 80026da:	681b      	ldr	r3, [r3, #0]
 80026dc:	3314      	adds	r3, #20
 80026de:	f8d7 20b0 	ldr.w	r2, [r7, #176]	@ 0xb0
 80026e2:	66fa      	str	r2, [r7, #108]	@ 0x6c
 80026e4:	66bb      	str	r3, [r7, #104]	@ 0x68
 80026e6:	6eb9      	ldr	r1, [r7, #104]	@ 0x68
 80026e8:	6efa      	ldr	r2, [r7, #108]	@ 0x6c
 80026ea:	e841 2300 	strex	r3, r2, [r1]
 80026ee:	667b      	str	r3, [r7, #100]	@ 0x64
 80026f0:	6e7b      	ldr	r3, [r7, #100]	@ 0x64
 80026f2:	2b00      	cmp	r3, #0
 80026f4:	d1e3      	bne.n	80026be <HAL_UART_IRQHandler+0x33a>
 80026f6:	687b      	ldr	r3, [r7, #4]
 80026f8:	2220      	movs	r2, #32
 80026fa:	f883 2042 	strb.w	r2, [r3, #66]	@ 0x42
 80026fe:	687b      	ldr	r3, [r7, #4]
 8002700:	2200      	movs	r2, #0
 8002702:	631a      	str	r2, [r3, #48]	@ 0x30
 8002704:	687b      	ldr	r3, [r7, #4]
 8002706:	681b      	ldr	r3, [r3, #0]
 8002708:	330c      	adds	r3, #12
 800270a:	64fb      	str	r3, [r7, #76]	@ 0x4c
 800270c:	6cfb      	ldr	r3, [r7, #76]	@ 0x4c
 800270e:	e853 3f00 	ldrex	r3, [r3]
 8002712:	64bb      	str	r3, [r7, #72]	@ 0x48
 8002714:	6cbb      	ldr	r3, [r7, #72]	@ 0x48
 8002716:	f023 0310 	bic.w	r3, r3, #16
 800271a:	f8c7 30ac 	str.w	r3, [r7, #172]	@ 0xac
 800271e:	687b      	ldr	r3, [r7, #4]
 8002720:	681b      	ldr	r3, [r3, #0]
 8002722:	330c      	adds	r3, #12
 8002724:	f8d7 20ac 	ldr.w	r2, [r7, #172]	@ 0xac
 8002728:	65ba      	str	r2, [r7, #88]	@ 0x58
 800272a:	657b      	str	r3, [r7, #84]	@ 0x54
 800272c:	6d79      	ldr	r1, [r7, #84]	@ 0x54
 800272e:	6dba      	ldr	r2, [r7, #88]	@ 0x58
 8002730:	e841 2300 	strex	r3, r2, [r1]
 8002734:	653b      	str	r3, [r7, #80]	@ 0x50
 8002736:	6d3b      	ldr	r3, [r7, #80]	@ 0x50
 8002738:	2b00      	cmp	r3, #0
 800273a:	d1e3      	bne.n	8002704 <HAL_UART_IRQHandler+0x380>
 800273c:	687b      	ldr	r3, [r7, #4]
 800273e:	6bdb      	ldr	r3, [r3, #60]	@ 0x3c
 8002740:	4618      	mov	r0, r3
 8002742:	f7fe fc45 	bl	8000fd0 <HAL_DMA_Abort>
 8002746:	687b      	ldr	r3, [r7, #4]
 8002748:	2202      	movs	r2, #2
 800274a:	635a      	str	r2, [r3, #52]	@ 0x34
 800274c:	687b      	ldr	r3, [r7, #4]
 800274e:	8d9a      	ldrh	r2, [r3, #44]	@ 0x2c
 8002750:	687b      	ldr	r3, [r7, #4]
 8002752:	8ddb      	ldrh	r3, [r3, #46]	@ 0x2e
 8002754:	b29b      	uxth	r3, r3
 8002756:	1ad3      	subs	r3, r2, r3
 8002758:	b29b      	uxth	r3, r3
 800275a:	4619      	mov	r1, r3
 800275c:	6878      	ldr	r0, [r7, #4]
 800275e:	f7fe f803 	bl	8000768 <HAL_UARTEx_RxEventCallback>
 8002762:	e0b3      	b.n	80028cc <HAL_UART_IRQHandler+0x548>
 8002764:	687b      	ldr	r3, [r7, #4]
 8002766:	8d9b      	ldrh	r3, [r3, #44]	@ 0x2c
 8002768:	f8b7 20be 	ldrh.w	r2, [r7, #190]	@ 0xbe
 800276c:	429a      	cmp	r2, r3
 800276e:	f040 80ad 	bne.w	80028cc <HAL_UART_IRQHandler+0x548>
 8002772:	687b      	ldr	r3, [r7, #4]
 8002774:	6bdb      	ldr	r3, [r3, #60]	@ 0x3c
 8002776:	69db      	ldr	r3, [r3, #28]
 8002778:	f5b3 7f80 	cmp.w	r3, #256	@ 0x100
 800277c:	f040 80a6 	bne.w	80028cc <HAL_UART_IRQHandler+0x548>
 8002780:	687b      	ldr	r3, [r7, #4]
 8002782:	2202      	movs	r2, #2
 8002784:	635a      	str	r2, [r3, #52]	@ 0x34
 8002786:	687b      	ldr	r3, [r7, #4]
 8002788:	8d9b      	ldrh	r3, [r3, #44]	@ 0x2c
 800278a:	4619      	mov	r1, r3
 800278c:	6878      	ldr	r0, [r7, #4]
 800278e:	f7fd ffeb 	bl	8000768 <HAL_UARTEx_RxEventCallback>
 8002792:	e09b      	b.n	80028cc <HAL_UART_IRQHandler+0x548>
 8002794:	08002d87 	.word	0x08002d87
 8002798:	687b      	ldr	r3, [r7, #4]
 800279a:	8d9a      	ldrh	r2, [r3, #44]	@ 0x2c
 800279c:	687b      	ldr	r3, [r7, #4]
 800279e:	8ddb      	ldrh	r3, [r3, #46]	@ 0x2e
 80027a0:	b29b      	uxth	r3, r3
 80027a2:	1ad3      	subs	r3, r2, r3
 80027a4:	f8a7 30ce 	strh.w	r3, [r7, #206]	@ 0xce
 80027a8:	687b      	ldr	r3, [r7, #4]
 80027aa:	8ddb      	ldrh	r3, [r3, #46]	@ 0x2e
 80027ac:	b29b      	uxth	r3, r3
 80027ae:	2b00      	cmp	r3, #0
 80027b0:	f000 808e 	beq.w	80028d0 <HAL_UART_IRQHandler+0x54c>
 80027b4:	f8b7 30ce 	ldrh.w	r3, [r7, #206]	@ 0xce
 80027b8:	2b00      	cmp	r3, #0
 80027ba:	f000 8089 	beq.w	80028d0 <HAL_UART_IRQHandler+0x54c>
 80027be:	687b      	ldr	r3, [r7, #4]
 80027c0:	681b      	ldr	r3, [r3, #0]
 80027c2:	330c      	adds	r3, #12
 80027c4:	63bb      	str	r3, [r7, #56]	@ 0x38
 80027c6:	6bbb      	ldr	r3, [r7, #56]	@ 0x38
 80027c8:	e853 3f00 	ldrex	r3, [r3]
 80027cc:	637b      	str	r3, [r7, #52]	@ 0x34
 80027ce:	6b7b      	ldr	r3, [r7, #52]	@ 0x34
 80027d0:	f423 7390 	bic.w	r3, r3, #288	@ 0x120
 80027d4:	f8c7 30c8 	str.w	r3, [r7, #200]	@ 0xc8
 80027d8:	687b      	ldr	r3, [r7, #4]
 80027da:	681b      	ldr	r3, [r3, #0]
 80027dc:	330c      	adds	r3, #12
 80027de:	f8d7 20c8 	ldr.w	r2, [r7, #200]	@ 0xc8
 80027e2:	647a      	str	r2, [r7, #68]	@ 0x44
 80027e4:	643b      	str	r3, [r7, #64]	@ 0x40
 80027e6:	6c39      	ldr	r1, [r7, #64]	@ 0x40
 80027e8:	6c7a      	ldr	r2, [r7, #68]	@ 0x44
 80027ea:	e841 2300 	strex	r3, r2, [r1]
 80027ee:	63fb      	str	r3, [r7, #60]	@ 0x3c
 80027f0:	6bfb      	ldr	r3, [r7, #60]	@ 0x3c
 80027f2:	2b00      	cmp	r3, #0
 80027f4:	d1e3      	bne.n	80027be <HAL_UART_IRQHandler+0x43a>
 80027f6:	687b      	ldr	r3, [r7, #4]
 80027f8:	681b      	ldr	r3, [r3, #0]
 80027fa:	3314      	adds	r3, #20
 80027fc:	627b      	str	r3, [r7, #36]	@ 0x24
 80027fe:	6a7b      	ldr	r3, [r7, #36]	@ 0x24
 8002800:	e853 3f00 	ldrex	r3, [r3]
 8002804:	623b      	str	r3, [r7, #32]
 8002806:	6a3b      	ldr	r3, [r7, #32]
 8002808:	f023 0301 	bic.w	r3, r3, #1
 800280c:	f8c7 30c4 	str.w	r3, [r7, #196]	@ 0xc4
 8002810:	687b      	ldr	r3, [r7, #4]
 8002812:	681b      	ldr	r3, [r3, #0]
 8002814:	3314      	adds	r3, #20
 8002816:	f8d7 20c4 	ldr.w	r2, [r7, #196]	@ 0xc4
 800281a:	633a      	str	r2, [r7, #48]	@ 0x30
 800281c:	62fb      	str	r3, [r7, #44]	@ 0x2c
 800281e:	6af9      	ldr	r1, [r7, #44]	@ 0x2c
 8002820:	6b3a      	ldr	r2, [r7, #48]	@ 0x30
 8002822:	e841 2300 	strex	r3, r2, [r1]
 8002826:	62bb      	str	r3, [r7, #40]	@ 0x28
 8002828:	6abb      	ldr	r3, [r7, #40]	@ 0x28
 800282a:	2b00      	cmp	r3, #0
 800282c:	d1e3      	bne.n	80027f6 <HAL_UART_IRQHandler+0x472>
 800282e:	687b      	ldr	r3, [r7, #4]
 8002830:	2220      	movs	r2, #32
 8002832:	f883 2042 	strb.w	r2, [r3, #66]	@ 0x42
 8002836:	687b      	ldr	r3, [r7, #4]
 8002838:	2200      	movs	r2, #0
 800283a:	631a      	str	r2, [r3, #48]	@ 0x30
 800283c:	687b      	ldr	r3, [r7, #4]
 800283e:	681b      	ldr	r3, [r3, #0]
 8002840:	330c      	adds	r3, #12
 8002842:	613b      	str	r3, [r7, #16]
 8002844:	693b      	ldr	r3, [r7, #16]
 8002846:	e853 3f00 	ldrex	r3, [r3]
 800284a:	60fb      	str	r3, [r7, #12]
 800284c:	68fb      	ldr	r3, [r7, #12]
 800284e:	f023 0310 	bic.w	r3, r3, #16
 8002852:	f8c7 30c0 	str.w	r3, [r7, #192]	@ 0xc0
 8002856:	687b      	ldr	r3, [r7, #4]
 8002858:	681b      	ldr	r3, [r3, #0]
 800285a:	330c      	adds	r3, #12
 800285c:	f8d7 20c0 	ldr.w	r2, [r7, #192]	@ 0xc0
 8002860:	61fa      	str	r2, [r7, #28]
 8002862:	61bb      	str	r3, [r7, #24]
 8002864:	69b9      	ldr	r1, [r7, #24]
 8002866:	69fa      	ldr	r2, [r7, #28]
 8002868:	e841 2300 	strex	r3, r2, [r1]
 800286c:	617b      	str	r3, [r7, #20]
 800286e:	697b      	ldr	r3, [r7, #20]
 8002870:	2b00      	cmp	r3, #0
 8002872:	d1e3      	bne.n	800283c <HAL_UART_IRQHandler+0x4b8>
 8002874:	687b      	ldr	r3, [r7, #4]
 8002876:	2202      	movs	r2, #2
 8002878:	635a      	str	r2, [r3, #52]	@ 0x34
 800287a:	f8b7 30ce 	ldrh.w	r3, [r7, #206]	@ 0xce
 800287e:	4619      	mov	r1, r3
 8002880:	6878      	ldr	r0, [r7, #4]
 8002882:	f7fd ff71 	bl	8000768 <HAL_UARTEx_RxEventCallback>
 8002886:	e023      	b.n	80028d0 <HAL_UART_IRQHandler+0x54c>
 8002888:	f8d7 30e4 	ldr.w	r3, [r7, #228]	@ 0xe4
 800288c:	f003 0380 	and.w	r3, r3, #128	@ 0x80
 8002890:	2b00      	cmp	r3, #0
 8002892:	d009      	beq.n	80028a8 <HAL_UART_IRQHandler+0x524>
 8002894:	f8d7 30e0 	ldr.w	r3, [r7, #224]	@ 0xe0
 8002898:	f003 0380 	and.w	r3, r3, #128	@ 0x80
 800289c:	2b00      	cmp	r3, #0
 800289e:	d003      	beq.n	80028a8 <HAL_UART_IRQHandler+0x524>
 80028a0:	6878      	ldr	r0, [r7, #4]
 80028a2:	f000 fa81 	bl	8002da8 <UART_Transmit_IT>
 80028a6:	e014      	b.n	80028d2 <HAL_UART_IRQHandler+0x54e>
 80028a8:	f8d7 30e4 	ldr.w	r3, [r7, #228]	@ 0xe4
 80028ac:	f003 0340 	and.w	r3, r3, #64	@ 0x40
 80028b0:	2b00      	cmp	r3, #0
 80028b2:	d00e      	beq.n	80028d2 <HAL_UART_IRQHandler+0x54e>
 80028b4:	f8d7 30e0 	ldr.w	r3, [r7, #224]	@ 0xe0
 80028b8:	f003 0340 	and.w	r3, r3, #64	@ 0x40
 80028bc:	2b00      	cmp	r3, #0
 80028be:	d008      	beq.n	80028d2 <HAL_UART_IRQHandler+0x54e>
 80028c0:	6878      	ldr	r0, [r7, #4]
 80028c2:	f000 fac1 	bl	8002e48 <UART_EndTransmit_IT>
 80028c6:	e004      	b.n	80028d2 <HAL_UART_IRQHandler+0x54e>
 80028c8:	bf00      	nop
 80028ca:	e002      	b.n	80028d2 <HAL_UART_IRQHandler+0x54e>
 80028cc:	bf00      	nop
 80028ce:	e000      	b.n	80028d2 <HAL_UART_IRQHandler+0x54e>
 80028d0:	bf00      	nop
 80028d2:	37e8      	adds	r7, #232	@ 0xe8
 80028d4:	46bd      	mov	sp, r7
 80028d6:	bd80      	pop	{r7, pc}

080028d8 <HAL_UART_TxCpltCallback>:
 80028d8:	b480      	push	{r7}
 80028da:	b083      	sub	sp, #12
 80028dc:	af00      	add	r7, sp, #0
 80028de:	6078      	str	r0, [r7, #4]
 80028e0:	bf00      	nop
 80028e2:	370c      	adds	r7, #12
 80028e4:	46bd      	mov	sp, r7
 80028e6:	f85d 7b04 	ldr.w	r7, [sp], #4
 80028ea:	4770      	bx	lr

080028ec <HAL_UART_RxCpltCallback>:
 80028ec:	b480      	push	{r7}
 80028ee:	b083      	sub	sp, #12
 80028f0:	af00      	add	r7, sp, #0
 80028f2:	6078      	str	r0, [r7, #4]
 80028f4:	bf00      	nop
 80028f6:	370c      	adds	r7, #12
 80028f8:	46bd      	mov	sp, r7
 80028fa:	f85d 7b04 	ldr.w	r7, [sp], #4
 80028fe:	4770      	bx	lr

08002900 <HAL_UART_RxHalfCpltCallback>:
 8002900:	b480      	push	{r7}
 8002902:	b083      	sub	sp, #12
 8002904:	af00      	add	r7, sp, #0
 8002906:	6078      	str	r0, [r7, #4]
 8002908:	bf00      	nop
 800290a:	370c      	adds	r7, #12
 800290c:	46bd      	mov	sp, r7
 800290e:	f85d 7b04 	ldr.w	r7, [sp], #4
 8002912:	4770      	bx	lr

08002914 <HAL_UART_ErrorCallback>:
 8002914:	b480      	push	{r7}
 8002916:	b083      	sub	sp, #12
 8002918:	af00      	add	r7, sp, #0
 800291a:	6078      	str	r0, [r7, #4]
 800291c:	bf00      	nop
 800291e:	370c      	adds	r7, #12
 8002920:	46bd      	mov	sp, r7
 8002922:	f85d 7b04 	ldr.w	r7, [sp], #4
 8002926:	4770      	bx	lr

08002928 <UART_DMAReceiveCplt>:
 8002928:	b580      	push	{r7, lr}
 800292a:	b09c      	sub	sp, #112	@ 0x70
 800292c:	af00      	add	r7, sp, #0
 800292e:	6078      	str	r0, [r7, #4]
 8002930:	687b      	ldr	r3, [r7, #4]
 8002932:	6b9b      	ldr	r3, [r3, #56]	@ 0x38
 8002934:	66fb      	str	r3, [r7, #108]	@ 0x6c
 8002936:	687b      	ldr	r3, [r7, #4]
 8002938:	681b      	ldr	r3, [r3, #0]
 800293a:	681b      	ldr	r3, [r3, #0]
 800293c:	f403 7380 	and.w	r3, r3, #256	@ 0x100
 8002940:	2b00      	cmp	r3, #0
 8002942:	d172      	bne.n	8002a2a <UART_DMAReceiveCplt+0x102>
 8002944:	6efb      	ldr	r3, [r7, #108]	@ 0x6c
 8002946:	2200      	movs	r2, #0
 8002948:	85da      	strh	r2, [r3, #46]	@ 0x2e
 800294a:	6efb      	ldr	r3, [r7, #108]	@ 0x6c
 800294c:	681b      	ldr	r3, [r3, #0]
 800294e:	330c      	adds	r3, #12
 8002950:	64fb      	str	r3, [r7, #76]	@ 0x4c
 8002952:	6cfb      	ldr	r3, [r7, #76]	@ 0x4c
 8002954:	e853 3f00 	ldrex	r3, [r3]
 8002958:	64bb      	str	r3, [r7, #72]	@ 0x48
 800295a:	6cbb      	ldr	r3, [r7, #72]	@ 0x48
 800295c:	f423 7380 	bic.w	r3, r3, #256	@ 0x100
 8002960:	66bb      	str	r3, [r7, #104]	@ 0x68
 8002962:	6efb      	ldr	r3, [r7, #108]	@ 0x6c
 8002964:	681b      	ldr	r3, [r3, #0]
 8002966:	330c      	adds	r3, #12
 8002968:	6eba      	ldr	r2, [r7, #104]	@ 0x68
 800296a:	65ba      	str	r2, [r7, #88]	@ 0x58
 800296c:	657b      	str	r3, [r7, #84]	@ 0x54
 800296e:	6d79      	ldr	r1, [r7, #84]	@ 0x54
 8002970:	6dba      	ldr	r2, [r7, #88]	@ 0x58
 8002972:	e841 2300 	strex	r3, r2, [r1]
 8002976:	653b      	str	r3, [r7, #80]	@ 0x50
 8002978:	6d3b      	ldr	r3, [r7, #80]	@ 0x50
 800297a:	2b00      	cmp	r3, #0
 800297c:	d1e5      	bne.n	800294a <UART_DMAReceiveCplt+0x22>
 800297e:	6efb      	ldr	r3, [r7, #108]	@ 0x6c
 8002980:	681b      	ldr	r3, [r3, #0]
 8002982:	3314      	adds	r3, #20
 8002984:	63bb      	str	r3, [r7, #56]	@ 0x38
 8002986:	6bbb      	ldr	r3, [r7, #56]	@ 0x38
 8002988:	e853 3f00 	ldrex	r3, [r3]
 800298c:	637b      	str	r3, [r7, #52]	@ 0x34
 800298e:	6b7b      	ldr	r3, [r7, #52]	@ 0x34
 8002990:	f023 0301 	bic.w	r3, r3, #1
 8002994:	667b      	str	r3, [r7, #100]	@ 0x64
 8002996:	6efb      	ldr	r3, [r7, #108]	@ 0x6c
 8002998:	681b      	ldr	r3, [r3, #0]
 800299a:	3314      	adds	r3, #20
 800299c:	6e7a      	ldr	r2, [r7, #100]	@ 0x64
 800299e:	647a      	str	r2, [r7, #68]	@ 0x44
 80029a0:	643b      	str	r3, [r7, #64]	@ 0x40
 80029a2:	6c39      	ldr	r1, [r7, #64]	@ 0x40
 80029a4:	6c7a      	ldr	r2, [r7, #68]	@ 0x44
 80029a6:	e841 2300 	strex	r3, r2, [r1]
 80029aa:	63fb      	str	r3, [r7, #60]	@ 0x3c
 80029ac:	6bfb      	ldr	r3, [r7, #60]	@ 0x3c
 80029ae:	2b00      	cmp	r3, #0
 80029b0:	d1e5      	bne.n	800297e <UART_DMAReceiveCplt+0x56>
 80029b2:	6efb      	ldr	r3, [r7, #108]	@ 0x6c
 80029b4:	681b      	ldr	r3, [r3, #0]
 80029b6:	3314      	adds	r3, #20
 80029b8:	627b      	str	r3, [r7, #36]	@ 0x24
 80029ba:	6a7b      	ldr	r3, [r7, #36]	@ 0x24
 80029bc:	e853 3f00 	ldrex	r3, [r3]
 80029c0:	623b      	str	r3, [r7, #32]
 80029c2:	6a3b      	ldr	r3, [r7, #32]
 80029c4:	f023 0340 	bic.w	r3, r3, #64	@ 0x40
 80029c8:	663b      	str	r3, [r7, #96]	@ 0x60
 80029ca:	6efb      	ldr	r3, [r7, #108]	@ 0x6c
 80029cc:	681b      	ldr	r3, [r3, #0]
 80029ce:	3314      	adds	r3, #20
 80029d0:	6e3a      	ldr	r2, [r7, #96]	@ 0x60
 80029d2:	633a      	str	r2, [r7, #48]	@ 0x30
 80029d4:	62fb      	str	r3, [r7, #44]	@ 0x2c
 80029d6:	6af9      	ldr	r1, [r7, #44]	@ 0x2c
 80029d8:	6b3a      	ldr	r2, [r7, #48]	@ 0x30
 80029da:	e841 2300 	strex	r3, r2, [r1]
 80029de:	62bb      	str	r3, [r7, #40]	@ 0x28
 80029e0:	6abb      	ldr	r3, [r7, #40]	@ 0x28
 80029e2:	2b00      	cmp	r3, #0
 80029e4:	d1e5      	bne.n	80029b2 <UART_DMAReceiveCplt+0x8a>
 80029e6:	6efb      	ldr	r3, [r7, #108]	@ 0x6c
 80029e8:	2220      	movs	r2, #32
 80029ea:	f883 2042 	strb.w	r2, [r3, #66]	@ 0x42
 80029ee:	6efb      	ldr	r3, [r7, #108]	@ 0x6c
 80029f0:	6b1b      	ldr	r3, [r3, #48]	@ 0x30
 80029f2:	2b01      	cmp	r3, #1
 80029f4:	d119      	bne.n	8002a2a <UART_DMAReceiveCplt+0x102>
 80029f6:	6efb      	ldr	r3, [r7, #108]	@ 0x6c
 80029f8:	681b      	ldr	r3, [r3, #0]
 80029fa:	330c      	adds	r3, #12
 80029fc:	613b      	str	r3, [r7, #16]
 80029fe:	693b      	ldr	r3, [r7, #16]
 8002a00:	e853 3f00 	ldrex	r3, [r3]
 8002a04:	60fb      	str	r3, [r7, #12]
 8002a06:	68fb      	ldr	r3, [r7, #12]
 8002a08:	f023 0310 	bic.w	r3, r3, #16
 8002a0c:	65fb      	str	r3, [r7, #92]	@ 0x5c
 8002a0e:	6efb      	ldr	r3, [r7, #108]	@ 0x6c
 8002a10:	681b      	ldr	r3, [r3, #0]
 8002a12:	330c      	adds	r3, #12
 8002a14:	6dfa      	ldr	r2, [r7, #92]	@ 0x5c
 8002a16:	61fa      	str	r2, [r7, #28]
 8002a18:	61bb      	str	r3, [r7, #24]
 8002a1a:	69b9      	ldr	r1, [r7, #24]
 8002a1c:	69fa      	ldr	r2, [r7, #28]
 8002a1e:	e841 2300 	strex	r3, r2, [r1]
 8002a22:	617b      	str	r3, [r7, #20]
 8002a24:	697b      	ldr	r3, [r7, #20]
 8002a26:	2b00      	cmp	r3, #0
 8002a28:	d1e5      	bne.n	80029f6 <UART_DMAReceiveCplt+0xce>
 8002a2a:	6efb      	ldr	r3, [r7, #108]	@ 0x6c
 8002a2c:	2200      	movs	r2, #0
 8002a2e:	635a      	str	r2, [r3, #52]	@ 0x34
 8002a30:	6efb      	ldr	r3, [r7, #108]	@ 0x6c
 8002a32:	6b1b      	ldr	r3, [r3, #48]	@ 0x30
 8002a34:	2b01      	cmp	r3, #1
 8002a36:	d106      	bne.n	8002a46 <UART_DMAReceiveCplt+0x11e>
 8002a38:	6efb      	ldr	r3, [r7, #108]	@ 0x6c
 8002a3a:	8d9b      	ldrh	r3, [r3, #44]	@ 0x2c
 8002a3c:	4619      	mov	r1, r3
 8002a3e:	6ef8      	ldr	r0, [r7, #108]	@ 0x6c
 8002a40:	f7fd fe92 	bl	8000768 <HAL_UARTEx_RxEventCallback>
 8002a44:	e002      	b.n	8002a4c <UART_DMAReceiveCplt+0x124>
 8002a46:	6ef8      	ldr	r0, [r7, #108]	@ 0x6c
 8002a48:	f7ff ff50 	bl	80028ec <HAL_UART_RxCpltCallback>
 8002a4c:	bf00      	nop
 8002a4e:	3770      	adds	r7, #112	@ 0x70
 8002a50:	46bd      	mov	sp, r7
 8002a52:	bd80      	pop	{r7, pc}

08002a54 <UART_DMARxHalfCplt>:
 8002a54:	b580      	push	{r7, lr}
 8002a56:	b084      	sub	sp, #16
 8002a58:	af00      	add	r7, sp, #0
 8002a5a:	6078      	str	r0, [r7, #4]
 8002a5c:	687b      	ldr	r3, [r7, #4]
 8002a5e:	6b9b      	ldr	r3, [r3, #56]	@ 0x38
 8002a60:	60fb      	str	r3, [r7, #12]
 8002a62:	68fb      	ldr	r3, [r7, #12]
 8002a64:	2201      	movs	r2, #1
 8002a66:	635a      	str	r2, [r3, #52]	@ 0x34
 8002a68:	68fb      	ldr	r3, [r7, #12]
 8002a6a:	6b1b      	ldr	r3, [r3, #48]	@ 0x30
 8002a6c:	2b01      	cmp	r3, #1
 8002a6e:	d108      	bne.n	8002a82 <UART_DMARxHalfCplt+0x2e>
 8002a70:	68fb      	ldr	r3, [r7, #12]
 8002a72:	8d9b      	ldrh	r3, [r3, #44]	@ 0x2c
 8002a74:	085b      	lsrs	r3, r3, #1
 8002a76:	b29b      	uxth	r3, r3
 8002a78:	4619      	mov	r1, r3
 8002a7a:	68f8      	ldr	r0, [r7, #12]
 8002a7c:	f7fd fe74 	bl	8000768 <HAL_UARTEx_RxEventCallback>
 8002a80:	e002      	b.n	8002a88 <UART_DMARxHalfCplt+0x34>
 8002a82:	68f8      	ldr	r0, [r7, #12]
 8002a84:	f7ff ff3c 	bl	8002900 <HAL_UART_RxHalfCpltCallback>
 8002a88:	bf00      	nop
 8002a8a:	3710      	adds	r7, #16
 8002a8c:	46bd      	mov	sp, r7
 8002a8e:	bd80      	pop	{r7, pc}

08002a90 <UART_DMAError>:
 8002a90:	b580      	push	{r7, lr}
 8002a92:	b084      	sub	sp, #16
 8002a94:	af00      	add	r7, sp, #0
 8002a96:	6078      	str	r0, [r7, #4]
 8002a98:	2300      	movs	r3, #0
 8002a9a:	60fb      	str	r3, [r7, #12]
 8002a9c:	687b      	ldr	r3, [r7, #4]
 8002a9e:	6b9b      	ldr	r3, [r3, #56]	@ 0x38
 8002aa0:	60bb      	str	r3, [r7, #8]
 8002aa2:	68bb      	ldr	r3, [r7, #8]
 8002aa4:	681b      	ldr	r3, [r3, #0]
 8002aa6:	695b      	ldr	r3, [r3, #20]
 8002aa8:	f003 0380 	and.w	r3, r3, #128	@ 0x80
 8002aac:	2b80      	cmp	r3, #128	@ 0x80
 8002aae:	bf0c      	ite	eq
 8002ab0:	2301      	moveq	r3, #1
 8002ab2:	2300      	movne	r3, #0
 8002ab4:	b2db      	uxtb	r3, r3
 8002ab6:	60fb      	str	r3, [r7, #12]
 8002ab8:	68bb      	ldr	r3, [r7, #8]
 8002aba:	f893 3041 	ldrb.w	r3, [r3, #65]	@ 0x41
 8002abe:	b2db      	uxtb	r3, r3
 8002ac0:	2b21      	cmp	r3, #33	@ 0x21
 8002ac2:	d108      	bne.n	8002ad6 <UART_DMAError+0x46>
 8002ac4:	68fb      	ldr	r3, [r7, #12]
 8002ac6:	2b00      	cmp	r3, #0
 8002ac8:	d005      	beq.n	8002ad6 <UART_DMAError+0x46>
 8002aca:	68bb      	ldr	r3, [r7, #8]
 8002acc:	2200      	movs	r2, #0
 8002ace:	84da      	strh	r2, [r3, #38]	@ 0x26
 8002ad0:	68b8      	ldr	r0, [r7, #8]
 8002ad2:	f000 f8cd 	bl	8002c70 <UART_EndTxTransfer>
 8002ad6:	68bb      	ldr	r3, [r7, #8]
 8002ad8:	681b      	ldr	r3, [r3, #0]
 8002ada:	695b      	ldr	r3, [r3, #20]
 8002adc:	f003 0340 	and.w	r3, r3, #64	@ 0x40
 8002ae0:	2b40      	cmp	r3, #64	@ 0x40
 8002ae2:	bf0c      	ite	eq
 8002ae4:	2301      	moveq	r3, #1
 8002ae6:	2300      	movne	r3, #0
 8002ae8:	b2db      	uxtb	r3, r3
 8002aea:	60fb      	str	r3, [r7, #12]
 8002aec:	68bb      	ldr	r3, [r7, #8]
 8002aee:	f893 3042 	ldrb.w	r3, [r3, #66]	@ 0x42
 8002af2:	b2db      	uxtb	r3, r3
 8002af4:	2b22      	cmp	r3, #34	@ 0x22
 8002af6:	d108      	bne.n	8002b0a <UART_DMAError+0x7a>
 8002af8:	68fb      	ldr	r3, [r7, #12]
 8002afa:	2b00      	cmp	r3, #0
 8002afc:	d005      	beq.n	8002b0a <UART_DMAError+0x7a>
 8002afe:	68bb      	ldr	r3, [r7, #8]
 8002b00:	2200      	movs	r2, #0
 8002b02:	85da      	strh	r2, [r3, #46]	@ 0x2e
 8002b04:	68b8      	ldr	r0, [r7, #8]
 8002b06:	f000 f8db 	bl	8002cc0 <UART_EndRxTransfer>
 8002b0a:	68bb      	ldr	r3, [r7, #8]
 8002b0c:	6c5b      	ldr	r3, [r3, #68]	@ 0x44
 8002b0e:	f043 0210 	orr.w	r2, r3, #16
 8002b12:	68bb      	ldr	r3, [r7, #8]
 8002b14:	645a      	str	r2, [r3, #68]	@ 0x44
 8002b16:	68b8      	ldr	r0, [r7, #8]
 8002b18:	f7ff fefc 	bl	8002914 <HAL_UART_ErrorCallback>
 8002b1c:	bf00      	nop
 8002b1e:	3710      	adds	r7, #16
 8002b20:	46bd      	mov	sp, r7
 8002b22:	bd80      	pop	{r7, pc}

08002b24 <UART_Start_Receive_DMA>:
 8002b24:	b580      	push	{r7, lr}
 8002b26:	b098      	sub	sp, #96	@ 0x60
 8002b28:	af00      	add	r7, sp, #0
 8002b2a:	60f8      	str	r0, [r7, #12]
 8002b2c:	60b9      	str	r1, [r7, #8]
 8002b2e:	4613      	mov	r3, r2
 8002b30:	80fb      	strh	r3, [r7, #6]
 8002b32:	68ba      	ldr	r2, [r7, #8]
 8002b34:	68fb      	ldr	r3, [r7, #12]
 8002b36:	629a      	str	r2, [r3, #40]	@ 0x28
 8002b38:	68fb      	ldr	r3, [r7, #12]
 8002b3a:	88fa      	ldrh	r2, [r7, #6]
 8002b3c:	859a      	strh	r2, [r3, #44]	@ 0x2c
 8002b3e:	68fb      	ldr	r3, [r7, #12]
 8002b40:	2200      	movs	r2, #0
 8002b42:	645a      	str	r2, [r3, #68]	@ 0x44
 8002b44:	68fb      	ldr	r3, [r7, #12]
 8002b46:	2222      	movs	r2, #34	@ 0x22
 8002b48:	f883 2042 	strb.w	r2, [r3, #66]	@ 0x42
 8002b4c:	68fb      	ldr	r3, [r7, #12]
 8002b4e:	6bdb      	ldr	r3, [r3, #60]	@ 0x3c
 8002b50:	4a44      	ldr	r2, [pc, #272]	@ (8002c64 <UART_Start_Receive_DMA+0x140>)
 8002b52:	63da      	str	r2, [r3, #60]	@ 0x3c
 8002b54:	68fb      	ldr	r3, [r7, #12]
 8002b56:	6bdb      	ldr	r3, [r3, #60]	@ 0x3c
 8002b58:	4a43      	ldr	r2, [pc, #268]	@ (8002c68 <UART_Start_Receive_DMA+0x144>)
 8002b5a:	641a      	str	r2, [r3, #64]	@ 0x40
 8002b5c:	68fb      	ldr	r3, [r7, #12]
 8002b5e:	6bdb      	ldr	r3, [r3, #60]	@ 0x3c
 8002b60:	4a42      	ldr	r2, [pc, #264]	@ (8002c6c <UART_Start_Receive_DMA+0x148>)
 8002b62:	64da      	str	r2, [r3, #76]	@ 0x4c
 8002b64:	68fb      	ldr	r3, [r7, #12]
 8002b66:	6bdb      	ldr	r3, [r3, #60]	@ 0x3c
 8002b68:	2200      	movs	r2, #0
 8002b6a:	651a      	str	r2, [r3, #80]	@ 0x50
 8002b6c:	f107 0308 	add.w	r3, r7, #8
 8002b70:	65fb      	str	r3, [r7, #92]	@ 0x5c
 8002b72:	68fb      	ldr	r3, [r7, #12]
 8002b74:	6bd8      	ldr	r0, [r3, #60]	@ 0x3c
 8002b76:	68fb      	ldr	r3, [r7, #12]
 8002b78:	681b      	ldr	r3, [r3, #0]
 8002b7a:	3304      	adds	r3, #4
 8002b7c:	4619      	mov	r1, r3
 8002b7e:	6dfb      	ldr	r3, [r7, #92]	@ 0x5c
 8002b80:	681a      	ldr	r2, [r3, #0]
 8002b82:	88fb      	ldrh	r3, [r7, #6]
 8002b84:	f7fe f9cc 	bl	8000f20 <HAL_DMA_Start_IT>
 8002b88:	4603      	mov	r3, r0
 8002b8a:	2b00      	cmp	r3, #0
 8002b8c:	d008      	beq.n	8002ba0 <UART_Start_Receive_DMA+0x7c>
 8002b8e:	68fb      	ldr	r3, [r7, #12]
 8002b90:	2210      	movs	r2, #16
 8002b92:	645a      	str	r2, [r3, #68]	@ 0x44
 8002b94:	68fb      	ldr	r3, [r7, #12]
 8002b96:	2220      	movs	r2, #32
 8002b98:	f883 2042 	strb.w	r2, [r3, #66]	@ 0x42
 8002b9c:	2301      	movs	r3, #1
 8002b9e:	e05d      	b.n	8002c5c <UART_Start_Receive_DMA+0x138>
 8002ba0:	2300      	movs	r3, #0
 8002ba2:	613b      	str	r3, [r7, #16]
 8002ba4:	68fb      	ldr	r3, [r7, #12]
 8002ba6:	681b      	ldr	r3, [r3, #0]
 8002ba8:	681b      	ldr	r3, [r3, #0]
 8002baa:	613b      	str	r3, [r7, #16]
 8002bac:	68fb      	ldr	r3, [r7, #12]
 8002bae:	681b      	ldr	r3, [r3, #0]
 8002bb0:	685b      	ldr	r3, [r3, #4]
 8002bb2:	613b      	str	r3, [r7, #16]
 8002bb4:	693b      	ldr	r3, [r7, #16]
 8002bb6:	68fb      	ldr	r3, [r7, #12]
 8002bb8:	691b      	ldr	r3, [r3, #16]
 8002bba:	2b00      	cmp	r3, #0
 8002bbc:	d019      	beq.n	8002bf2 <UART_Start_Receive_DMA+0xce>
 8002bbe:	68fb      	ldr	r3, [r7, #12]
 8002bc0:	681b      	ldr	r3, [r3, #0]
 8002bc2:	330c      	adds	r3, #12
 8002bc4:	643b      	str	r3, [r7, #64]	@ 0x40
 8002bc6:	6c3b      	ldr	r3, [r7, #64]	@ 0x40
 8002bc8:	e853 3f00 	ldrex	r3, [r3]
 8002bcc:	63fb      	str	r3, [r7, #60]	@ 0x3c
 8002bce:	6bfb      	ldr	r3, [r7, #60]	@ 0x3c
 8002bd0:	f443 7380 	orr.w	r3, r3, #256	@ 0x100
 8002bd4:	65bb      	str	r3, [r7, #88]	@ 0x58
 8002bd6:	68fb      	ldr	r3, [r7, #12]
 8002bd8:	681b      	ldr	r3, [r3, #0]
 8002bda:	330c      	adds	r3, #12
 8002bdc:	6dba      	ldr	r2, [r7, #88]	@ 0x58
 8002bde:	64fa      	str	r2, [r7, #76]	@ 0x4c
 8002be0:	64bb      	str	r3, [r7, #72]	@ 0x48
 8002be2:	6cb9      	ldr	r1, [r7, #72]	@ 0x48
 8002be4:	6cfa      	ldr	r2, [r7, #76]	@ 0x4c
 8002be6:	e841 2300 	strex	r3, r2, [r1]
 8002bea:	647b      	str	r3, [r7, #68]	@ 0x44
 8002bec:	6c7b      	ldr	r3, [r7, #68]	@ 0x44
 8002bee:	2b00      	cmp	r3, #0
 8002bf0:	d1e5      	bne.n	8002bbe <UART_Start_Receive_DMA+0x9a>
 8002bf2:	68fb      	ldr	r3, [r7, #12]
 8002bf4:	681b      	ldr	r3, [r3, #0]
 8002bf6:	3314      	adds	r3, #20
 8002bf8:	62fb      	str	r3, [r7, #44]	@ 0x2c
 8002bfa:	6afb      	ldr	r3, [r7, #44]	@ 0x2c
 8002bfc:	e853 3f00 	ldrex	r3, [r3]
 8002c00:	62bb      	str	r3, [r7, #40]	@ 0x28
 8002c02:	6abb      	ldr	r3, [r7, #40]	@ 0x28
 8002c04:	f043 0301 	orr.w	r3, r3, #1
 8002c08:	657b      	str	r3, [r7, #84]	@ 0x54
 8002c0a:	68fb      	ldr	r3, [r7, #12]
 8002c0c:	681b      	ldr	r3, [r3, #0]
 8002c0e:	3314      	adds	r3, #20
 8002c10:	6d7a      	ldr	r2, [r7, #84]	@ 0x54
 8002c12:	63ba      	str	r2, [r7, #56]	@ 0x38
 8002c14:	637b      	str	r3, [r7, #52]	@ 0x34
 8002c16:	6b79      	ldr	r1, [r7, #52]	@ 0x34
 8002c18:	6bba      	ldr	r2, [r7, #56]	@ 0x38
 8002c1a:	e841 2300 	strex	r3, r2, [r1]
 8002c1e:	633b      	str	r3, [r7, #48]	@ 0x30
 8002c20:	6b3b      	ldr	r3, [r7, #48]	@ 0x30
 8002c22:	2b00      	cmp	r3, #0
 8002c24:	d1e5      	bne.n	8002bf2 <UART_Start_Receive_DMA+0xce>
 8002c26:	68fb      	ldr	r3, [r7, #12]
 8002c28:	681b      	ldr	r3, [r3, #0]
 8002c2a:	3314      	adds	r3, #20
 8002c2c:	61bb      	str	r3, [r7, #24]
 8002c2e:	69bb      	ldr	r3, [r7, #24]
 8002c30:	e853 3f00 	ldrex	r3, [r3]
 8002c34:	617b      	str	r3, [r7, #20]
 8002c36:	697b      	ldr	r3, [r7, #20]
 8002c38:	f043 0340 	orr.w	r3, r3, #64	@ 0x40
 8002c3c:	653b      	str	r3, [r7, #80]	@ 0x50
 8002c3e:	68fb      	ldr	r3, [r7, #12]
 8002c40:	681b      	ldr	r3, [r3, #0]
 8002c42:	3314      	adds	r3, #20
 8002c44:	6d3a      	ldr	r2, [r7, #80]	@ 0x50
 8002c46:	627a      	str	r2, [r7, #36]	@ 0x24
 8002c48:	623b      	str	r3, [r7, #32]
 8002c4a:	6a39      	ldr	r1, [r7, #32]
 8002c4c:	6a7a      	ldr	r2, [r7, #36]	@ 0x24
 8002c4e:	e841 2300 	strex	r3, r2, [r1]
 8002c52:	61fb      	str	r3, [r7, #28]
 8002c54:	69fb      	ldr	r3, [r7, #28]
 8002c56:	2b00      	cmp	r3, #0
 8002c58:	d1e5      	bne.n	8002c26 <UART_Start_Receive_DMA+0x102>
 8002c5a:	2300      	movs	r3, #0
 8002c5c:	4618      	mov	r0, r3
 8002c5e:	3760      	adds	r7, #96	@ 0x60
 8002c60:	46bd      	mov	sp, r7
 8002c62:	bd80      	pop	{r7, pc}
 8002c64:	08002929 	.word	0x08002929
 8002c68:	08002a55 	.word	0x08002a55
 8002c6c:	08002a91 	.word	0x08002a91

08002c70 <UART_EndTxTransfer>:
 8002c70:	b480      	push	{r7}
 8002c72:	b089      	sub	sp, #36	@ 0x24
 8002c74:	af00      	add	r7, sp, #0
 8002c76:	6078      	str	r0, [r7, #4]
 8002c78:	687b      	ldr	r3, [r7, #4]
 8002c7a:	681b      	ldr	r3, [r3, #0]
 8002c7c:	330c      	adds	r3, #12
 8002c7e:	60fb      	str	r3, [r7, #12]
 8002c80:	68fb      	ldr	r3, [r7, #12]
 8002c82:	e853 3f00 	ldrex	r3, [r3]
 8002c86:	60bb      	str	r3, [r7, #8]
 8002c88:	68bb      	ldr	r3, [r7, #8]
 8002c8a:	f023 03c0 	bic.w	r3, r3, #192	@ 0xc0
 8002c8e:	61fb      	str	r3, [r7, #28]
 8002c90:	687b      	ldr	r3, [r7, #4]
 8002c92:	681b      	ldr	r3, [r3, #0]
 8002c94:	330c      	adds	r3, #12
 8002c96:	69fa      	ldr	r2, [r7, #28]
 8002c98:	61ba      	str	r2, [r7, #24]
 8002c9a:	617b      	str	r3, [r7, #20]
 8002c9c:	6979      	ldr	r1, [r7, #20]
 8002c9e:	69ba      	ldr	r2, [r7, #24]
 8002ca0:	e841 2300 	strex	r3, r2, [r1]
 8002ca4:	613b      	str	r3, [r7, #16]
 8002ca6:	693b      	ldr	r3, [r7, #16]
 8002ca8:	2b00      	cmp	r3, #0
 8002caa:	d1e5      	bne.n	8002c78 <UART_EndTxTransfer+0x8>
 8002cac:	687b      	ldr	r3, [r7, #4]
 8002cae:	2220      	movs	r2, #32
 8002cb0:	f883 2041 	strb.w	r2, [r3, #65]	@ 0x41
 8002cb4:	bf00      	nop
 8002cb6:	3724      	adds	r7, #36	@ 0x24
 8002cb8:	46bd      	mov	sp, r7
 8002cba:	f85d 7b04 	ldr.w	r7, [sp], #4
 8002cbe:	4770      	bx	lr

08002cc0 <UART_EndRxTransfer>:
 8002cc0:	b480      	push	{r7}
 8002cc2:	b095      	sub	sp, #84	@ 0x54
 8002cc4:	af00      	add	r7, sp, #0
 8002cc6:	6078      	str	r0, [r7, #4]
 8002cc8:	687b      	ldr	r3, [r7, #4]
 8002cca:	681b      	ldr	r3, [r3, #0]
 8002ccc:	330c      	adds	r3, #12
 8002cce:	637b      	str	r3, [r7, #52]	@ 0x34
 8002cd0:	6b7b      	ldr	r3, [r7, #52]	@ 0x34
 8002cd2:	e853 3f00 	ldrex	r3, [r3]
 8002cd6:	633b      	str	r3, [r7, #48]	@ 0x30
 8002cd8:	6b3b      	ldr	r3, [r7, #48]	@ 0x30
 8002cda:	f423 7390 	bic.w	r3, r3, #288	@ 0x120
 8002cde:	64fb      	str	r3, [r7, #76]	@ 0x4c
 8002ce0:	687b      	ldr	r3, [r7, #4]
 8002ce2:	681b      	ldr	r3, [r3, #0]
 8002ce4:	330c      	adds	r3, #12
 8002ce6:	6cfa      	ldr	r2, [r7, #76]	@ 0x4c
 8002ce8:	643a      	str	r2, [r7, #64]	@ 0x40
 8002cea:	63fb      	str	r3, [r7, #60]	@ 0x3c
 8002cec:	6bf9      	ldr	r1, [r7, #60]	@ 0x3c
 8002cee:	6c3a      	ldr	r2, [r7, #64]	@ 0x40
 8002cf0:	e841 2300 	strex	r3, r2, [r1]
 8002cf4:	63bb      	str	r3, [r7, #56]	@ 0x38
 8002cf6:	6bbb      	ldr	r3, [r7, #56]	@ 0x38
 8002cf8:	2b00      	cmp	r3, #0
 8002cfa:	d1e5      	bne.n	8002cc8 <UART_EndRxTransfer+0x8>
 8002cfc:	687b      	ldr	r3, [r7, #4]
 8002cfe:	681b      	ldr	r3, [r3, #0]
 8002d00:	3314      	adds	r3, #20
 8002d02:	623b      	str	r3, [r7, #32]
 8002d04:	6a3b      	ldr	r3, [r7, #32]
 8002d06:	e853 3f00 	ldrex	r3, [r3]
 8002d0a:	61fb      	str	r3, [r7, #28]
 8002d0c:	69fb      	ldr	r3, [r7, #28]
 8002d0e:	f023 0301 	bic.w	r3, r3, #1
 8002d12:	64bb      	str	r3, [r7, #72]	@ 0x48
 8002d14:	687b      	ldr	r3, [r7, #4]
 8002d16:	681b      	ldr	r3, [r3, #0]
 8002d18:	3314      	adds	r3, #20
 8002d1a:	6cba      	ldr	r2, [r7, #72]	@ 0x48
 8002d1c:	62fa      	str	r2, [r7, #44]	@ 0x2c
 8002d1e:	62bb      	str	r3, [r7, #40]	@ 0x28
 8002d20:	6ab9      	ldr	r1, [r7, #40]	@ 0x28
 8002d22:	6afa      	ldr	r2, [r7, #44]	@ 0x2c
 8002d24:	e841 2300 	strex	r3, r2, [r1]
 8002d28:	627b      	str	r3, [r7, #36]	@ 0x24
 8002d2a:	6a7b      	ldr	r3, [r7, #36]	@ 0x24
 8002d2c:	2b00      	cmp	r3, #0
 8002d2e:	d1e5      	bne.n	8002cfc <UART_EndRxTransfer+0x3c>
 8002d30:	687b      	ldr	r3, [r7, #4]
 8002d32:	6b1b      	ldr	r3, [r3, #48]	@ 0x30
 8002d34:	2b01      	cmp	r3, #1
 8002d36:	d119      	bne.n	8002d6c <UART_EndRxTransfer+0xac>
 8002d38:	687b      	ldr	r3, [r7, #4]
 8002d3a:	681b      	ldr	r3, [r3, #0]
 8002d3c:	330c      	adds	r3, #12
 8002d3e:	60fb      	str	r3, [r7, #12]
 8002d40:	68fb      	ldr	r3, [r7, #12]
 8002d42:	e853 3f00 	ldrex	r3, [r3]
 8002d46:	60bb      	str	r3, [r7, #8]
 8002d48:	68bb      	ldr	r3, [r7, #8]
 8002d4a:	f023 0310 	bic.w	r3, r3, #16
 8002d4e:	647b      	str	r3, [r7, #68]	@ 0x44
 8002d50:	687b      	ldr	r3, [r7, #4]
 8002d52:	681b      	ldr	r3, [r3, #0]
 8002d54:	330c      	adds	r3, #12
 8002d56:	6c7a      	ldr	r2, [r7, #68]	@ 0x44
 8002d58:	61ba      	str	r2, [r7, #24]
 8002d5a:	617b      	str	r3, [r7, #20]
 8002d5c:	6979      	ldr	r1, [r7, #20]
 8002d5e:	69ba      	ldr	r2, [r7, #24]
 8002d60:	e841 2300 	strex	r3, r2, [r1]
 8002d64:	613b      	str	r3, [r7, #16]
 8002d66:	693b      	ldr	r3, [r7, #16]
 8002d68:	2b00      	cmp	r3, #0
 8002d6a:	d1e5      	bne.n	8002d38 <UART_EndRxTransfer+0x78>
 8002d6c:	687b      	ldr	r3, [r7, #4]
 8002d6e:	2220      	movs	r2, #32
 8002d70:	f883 2042 	strb.w	r2, [r3, #66]	@ 0x42
 8002d74:	687b      	ldr	r3, [r7, #4]
 8002d76:	2200      	movs	r2, #0
 8002d78:	631a      	str	r2, [r3, #48]	@ 0x30
 8002d7a:	bf00      	nop
 8002d7c:	3754      	adds	r7, #84	@ 0x54
 8002d7e:	46bd      	mov	sp, r7
 8002d80:	f85d 7b04 	ldr.w	r7, [sp], #4
 8002d84:	4770      	bx	lr

08002d86 <UART_DMAAbortOnError>:
 8002d86:	b580      	push	{r7, lr}
 8002d88:	b084      	sub	sp, #16
 8002d8a:	af00      	add	r7, sp, #0
 8002d8c:	6078      	str	r0, [r7, #4]
 8002d8e:	687b      	ldr	r3, [r7, #4]
 8002d90:	6b9b      	ldr	r3, [r3, #56]	@ 0x38
 8002d92:	60fb      	str	r3, [r7, #12]
 8002d94:	68fb      	ldr	r3, [r7, #12]
 8002d96:	2200      	movs	r2, #0
 8002d98:	85da      	strh	r2, [r3, #46]	@ 0x2e
 8002d9a:	68f8      	ldr	r0, [r7, #12]
 8002d9c:	f7ff fdba 	bl	8002914 <HAL_UART_ErrorCallback>
 8002da0:	bf00      	nop
 8002da2:	3710      	adds	r7, #16
 8002da4:	46bd      	mov	sp, r7
 8002da6:	bd80      	pop	{r7, pc}

08002da8 <UART_Transmit_IT>:
 8002da8:	b480      	push	{r7}
 8002daa:	b085      	sub	sp, #20
 8002dac:	af00      	add	r7, sp, #0
 8002dae:	6078      	str	r0, [r7, #4]
 8002db0:	687b      	ldr	r3, [r7, #4]
 8002db2:	f893 3041 	ldrb.w	r3, [r3, #65]	@ 0x41
 8002db6:	b2db      	uxtb	r3, r3
 8002db8:	2b21      	cmp	r3, #33	@ 0x21
 8002dba:	d13e      	bne.n	8002e3a <UART_Transmit_IT+0x92>
 8002dbc:	687b      	ldr	r3, [r7, #4]
 8002dbe:	689b      	ldr	r3, [r3, #8]
 8002dc0:	f5b3 5f80 	cmp.w	r3, #4096	@ 0x1000
 8002dc4:	d114      	bne.n	8002df0 <UART_Transmit_IT+0x48>
 8002dc6:	687b      	ldr	r3, [r7, #4]
 8002dc8:	691b      	ldr	r3, [r3, #16]
 8002dca:	2b00      	cmp	r3, #0
 8002dcc:	d110      	bne.n	8002df0 <UART_Transmit_IT+0x48>
 8002dce:	687b      	ldr	r3, [r7, #4]
 8002dd0:	6a1b      	ldr	r3, [r3, #32]
 8002dd2:	60fb      	str	r3, [r7, #12]
 8002dd4:	68fb      	ldr	r3, [r7, #12]
 8002dd6:	881b      	ldrh	r3, [r3, #0]
 8002dd8:	461a      	mov	r2, r3
 8002dda:	687b      	ldr	r3, [r7, #4]
 8002ddc:	681b      	ldr	r3, [r3, #0]
 8002dde:	f3c2 0208 	ubfx	r2, r2, #0, #9
 8002de2:	605a      	str	r2, [r3, #4]
 8002de4:	687b      	ldr	r3, [r7, #4]
 8002de6:	6a1b      	ldr	r3, [r3, #32]
 8002de8:	1c9a      	adds	r2, r3, #2
 8002dea:	687b      	ldr	r3, [r7, #4]
 8002dec:	621a      	str	r2, [r3, #32]
 8002dee:	e008      	b.n	8002e02 <UART_Transmit_IT+0x5a>
 8002df0:	687b      	ldr	r3, [r7, #4]
 8002df2:	6a1b      	ldr	r3, [r3, #32]
 8002df4:	1c59      	adds	r1, r3, #1
 8002df6:	687a      	ldr	r2, [r7, #4]
 8002df8:	6211      	str	r1, [r2, #32]
 8002dfa:	781a      	ldrb	r2, [r3, #0]
 8002dfc:	687b      	ldr	r3, [r7, #4]
 8002dfe:	681b      	ldr	r3, [r3, #0]
 8002e00:	605a      	str	r2, [r3, #4]
 8002e02:	687b      	ldr	r3, [r7, #4]
 8002e04:	8cdb      	ldrh	r3, [r3, #38]	@ 0x26
 8002e06:	b29b      	uxth	r3, r3
 8002e08:	3b01      	subs	r3, #1
 8002e0a:	b29b      	uxth	r3, r3
 8002e0c:	687a      	ldr	r2, [r7, #4]
 8002e0e:	4619      	mov	r1, r3
 8002e10:	84d1      	strh	r1, [r2, #38]	@ 0x26
 8002e12:	2b00      	cmp	r3, #0
 8002e14:	d10f      	bne.n	8002e36 <UART_Transmit_IT+0x8e>
 8002e16:	687b      	ldr	r3, [r7, #4]
 8002e18:	681b      	ldr	r3, [r3, #0]
 8002e1a:	68da      	ldr	r2, [r3, #12]
 8002e1c:	687b      	ldr	r3, [r7, #4]
 8002e1e:	681b      	ldr	r3, [r3, #0]
 8002e20:	f022 0280 	bic.w	r2, r2, #128	@ 0x80
 8002e24:	60da      	str	r2, [r3, #12]
 8002e26:	687b      	ldr	r3, [r7, #4]
 8002e28:	681b      	ldr	r3, [r3, #0]
 8002e2a:	68da      	ldr	r2, [r3, #12]
 8002e2c:	687b      	ldr	r3, [r7, #4]
 8002e2e:	681b      	ldr	r3, [r3, #0]
 8002e30:	f042 0240 	orr.w	r2, r2, #64	@ 0x40
 8002e34:	60da      	str	r2, [r3, #12]
 8002e36:	2300      	movs	r3, #0
 8002e38:	e000      	b.n	8002e3c <UART_Transmit_IT+0x94>
 8002e3a:	2302      	movs	r3, #2
 8002e3c:	4618      	mov	r0, r3
 8002e3e:	3714      	adds	r7, #20
 8002e40:	46bd      	mov	sp, r7
 8002e42:	f85d 7b04 	ldr.w	r7, [sp], #4
 8002e46:	4770      	bx	lr

08002e48 <UART_EndTransmit_IT>:
 8002e48:	b580      	push	{r7, lr}
 8002e4a:	b082      	sub	sp, #8
 8002e4c:	af00      	add	r7, sp, #0
 8002e4e:	6078      	str	r0, [r7, #4]
 8002e50:	687b      	ldr	r3, [r7, #4]
 8002e52:	681b      	ldr	r3, [r3, #0]
 8002e54:	68da      	ldr	r2, [r3, #12]
 8002e56:	687b      	ldr	r3, [r7, #4]
 8002e58:	681b      	ldr	r3, [r3, #0]
 8002e5a:	f022 0240 	bic.w	r2, r2, #64	@ 0x40
 8002e5e:	60da      	str	r2, [r3, #12]
 8002e60:	687b      	ldr	r3, [r7, #4]
 8002e62:	2220      	movs	r2, #32
 8002e64:	f883 2041 	strb.w	r2, [r3, #65]	@ 0x41
 8002e68:	6878      	ldr	r0, [r7, #4]
 8002e6a:	f7ff fd35 	bl	80028d8 <HAL_UART_TxCpltCallback>
 8002e6e:	2300      	movs	r3, #0
 8002e70:	4618      	mov	r0, r3
 8002e72:	3708      	adds	r7, #8
 8002e74:	46bd      	mov	sp, r7
 8002e76:	bd80      	pop	{r7, pc}

08002e78 <UART_Receive_IT>:
 8002e78:	b580      	push	{r7, lr}
 8002e7a:	b08c      	sub	sp, #48	@ 0x30
 8002e7c:	af00      	add	r7, sp, #0
 8002e7e:	6078      	str	r0, [r7, #4]
 8002e80:	2300      	movs	r3, #0
 8002e82:	62fb      	str	r3, [r7, #44]	@ 0x2c
 8002e84:	2300      	movs	r3, #0
 8002e86:	62bb      	str	r3, [r7, #40]	@ 0x28
 8002e88:	687b      	ldr	r3, [r7, #4]
 8002e8a:	f893 3042 	ldrb.w	r3, [r3, #66]	@ 0x42
 8002e8e:	b2db      	uxtb	r3, r3
 8002e90:	2b22      	cmp	r3, #34	@ 0x22
 8002e92:	f040 80aa 	bne.w	8002fea <UART_Receive_IT+0x172>
 8002e96:	687b      	ldr	r3, [r7, #4]
 8002e98:	689b      	ldr	r3, [r3, #8]
 8002e9a:	f5b3 5f80 	cmp.w	r3, #4096	@ 0x1000
 8002e9e:	d115      	bne.n	8002ecc <UART_Receive_IT+0x54>
 8002ea0:	687b      	ldr	r3, [r7, #4]
 8002ea2:	691b      	ldr	r3, [r3, #16]
 8002ea4:	2b00      	cmp	r3, #0
 8002ea6:	d111      	bne.n	8002ecc <UART_Receive_IT+0x54>
 8002ea8:	687b      	ldr	r3, [r7, #4]
 8002eaa:	6a9b      	ldr	r3, [r3, #40]	@ 0x28
 8002eac:	62bb      	str	r3, [r7, #40]	@ 0x28
 8002eae:	687b      	ldr	r3, [r7, #4]
 8002eb0:	681b      	ldr	r3, [r3, #0]
 8002eb2:	685b      	ldr	r3, [r3, #4]
 8002eb4:	b29b      	uxth	r3, r3
 8002eb6:	f3c3 0308 	ubfx	r3, r3, #0, #9
 8002eba:	b29a      	uxth	r2, r3
 8002ebc:	6abb      	ldr	r3, [r7, #40]	@ 0x28
 8002ebe:	801a      	strh	r2, [r3, #0]
 8002ec0:	687b      	ldr	r3, [r7, #4]
 8002ec2:	6a9b      	ldr	r3, [r3, #40]	@ 0x28
 8002ec4:	1c9a      	adds	r2, r3, #2
 8002ec6:	687b      	ldr	r3, [r7, #4]
 8002ec8:	629a      	str	r2, [r3, #40]	@ 0x28
 8002eca:	e024      	b.n	8002f16 <UART_Receive_IT+0x9e>
 8002ecc:	687b      	ldr	r3, [r7, #4]
 8002ece:	6a9b      	ldr	r3, [r3, #40]	@ 0x28
 8002ed0:	62fb      	str	r3, [r7, #44]	@ 0x2c
 8002ed2:	687b      	ldr	r3, [r7, #4]
 8002ed4:	689b      	ldr	r3, [r3, #8]
 8002ed6:	f5b3 5f80 	cmp.w	r3, #4096	@ 0x1000
 8002eda:	d007      	beq.n	8002eec <UART_Receive_IT+0x74>
 8002edc:	687b      	ldr	r3, [r7, #4]
 8002ede:	689b      	ldr	r3, [r3, #8]
 8002ee0:	2b00      	cmp	r3, #0
 8002ee2:	d10a      	bne.n	8002efa <UART_Receive_IT+0x82>
 8002ee4:	687b      	ldr	r3, [r7, #4]
 8002ee6:	691b      	ldr	r3, [r3, #16]
 8002ee8:	2b00      	cmp	r3, #0
 8002eea:	d106      	bne.n	8002efa <UART_Receive_IT+0x82>
 8002eec:	687b      	ldr	r3, [r7, #4]
 8002eee:	681b      	ldr	r3, [r3, #0]
 8002ef0:	685b      	ldr	r3, [r3, #4]
 8002ef2:	b2da      	uxtb	r2, r3
 8002ef4:	6afb      	ldr	r3, [r7, #44]	@ 0x2c
 8002ef6:	701a      	strb	r2, [r3, #0]
 8002ef8:	e008      	b.n	8002f0c <UART_Receive_IT+0x94>
 8002efa:	687b      	ldr	r3, [r7, #4]
 8002efc:	681b      	ldr	r3, [r3, #0]
 8002efe:	685b      	ldr	r3, [r3, #4]
 8002f00:	b2db      	uxtb	r3, r3
 8002f02:	f003 037f 	and.w	r3, r3, #127	@ 0x7f
 8002f06:	b2da      	uxtb	r2, r3
 8002f08:	6afb      	ldr	r3, [r7, #44]	@ 0x2c
 8002f0a:	701a      	strb	r2, [r3, #0]
 8002f0c:	687b      	ldr	r3, [r7, #4]
 8002f0e:	6a9b      	ldr	r3, [r3, #40]	@ 0x28
 8002f10:	1c5a      	adds	r2, r3, #1
 8002f12:	687b      	ldr	r3, [r7, #4]
 8002f14:	629a      	str	r2, [r3, #40]	@ 0x28
 8002f16:	687b      	ldr	r3, [r7, #4]
 8002f18:	8ddb      	ldrh	r3, [r3, #46]	@ 0x2e
 8002f1a:	b29b      	uxth	r3, r3
 8002f1c:	3b01      	subs	r3, #1
 8002f1e:	b29b      	uxth	r3, r3
 8002f20:	687a      	ldr	r2, [r7, #4]
 8002f22:	4619      	mov	r1, r3
 8002f24:	85d1      	strh	r1, [r2, #46]	@ 0x2e
 8002f26:	2b00      	cmp	r3, #0
 8002f28:	d15d      	bne.n	8002fe6 <UART_Receive_IT+0x16e>
 8002f2a:	687b      	ldr	r3, [r7, #4]
 8002f2c:	681b      	ldr	r3, [r3, #0]
 8002f2e:	68da      	ldr	r2, [r3, #12]
 8002f30:	687b      	ldr	r3, [r7, #4]
 8002f32:	681b      	ldr	r3, [r3, #0]
 8002f34:	f022 0220 	bic.w	r2, r2, #32
 8002f38:	60da      	str	r2, [r3, #12]
 8002f3a:	687b      	ldr	r3, [r7, #4]
 8002f3c:	681b      	ldr	r3, [r3, #0]
 8002f3e:	68da      	ldr	r2, [r3, #12]
 8002f40:	687b      	ldr	r3, [r7, #4]
 8002f42:	681b      	ldr	r3, [r3, #0]
 8002f44:	f422 7280 	bic.w	r2, r2, #256	@ 0x100
 8002f48:	60da      	str	r2, [r3, #12]
 8002f4a:	687b      	ldr	r3, [r7, #4]
 8002f4c:	681b      	ldr	r3, [r3, #0]
 8002f4e:	695a      	ldr	r2, [r3, #20]
 8002f50:	687b      	ldr	r3, [r7, #4]
 8002f52:	681b      	ldr	r3, [r3, #0]
 8002f54:	f022 0201 	bic.w	r2, r2, #1
 8002f58:	615a      	str	r2, [r3, #20]
 8002f5a:	687b      	ldr	r3, [r7, #4]
 8002f5c:	2220      	movs	r2, #32
 8002f5e:	f883 2042 	strb.w	r2, [r3, #66]	@ 0x42
 8002f62:	687b      	ldr	r3, [r7, #4]
 8002f64:	2200      	movs	r2, #0
 8002f66:	635a      	str	r2, [r3, #52]	@ 0x34
 8002f68:	687b      	ldr	r3, [r7, #4]
 8002f6a:	6b1b      	ldr	r3, [r3, #48]	@ 0x30
 8002f6c:	2b01      	cmp	r3, #1
 8002f6e:	d135      	bne.n	8002fdc <UART_Receive_IT+0x164>
 8002f70:	687b      	ldr	r3, [r7, #4]
 8002f72:	2200      	movs	r2, #0
 8002f74:	631a      	str	r2, [r3, #48]	@ 0x30
 8002f76:	687b      	ldr	r3, [r7, #4]
 8002f78:	681b      	ldr	r3, [r3, #0]
 8002f7a:	330c      	adds	r3, #12
 8002f7c:	617b      	str	r3, [r7, #20]
 8002f7e:	697b      	ldr	r3, [r7, #20]
 8002f80:	e853 3f00 	ldrex	r3, [r3]
 8002f84:	613b      	str	r3, [r7, #16]
 8002f86:	693b      	ldr	r3, [r7, #16]
 8002f88:	f023 0310 	bic.w	r3, r3, #16
 8002f8c:	627b      	str	r3, [r7, #36]	@ 0x24
 8002f8e:	687b      	ldr	r3, [r7, #4]
 8002f90:	681b      	ldr	r3, [r3, #0]
 8002f92:	330c      	adds	r3, #12
 8002f94:	6a7a      	ldr	r2, [r7, #36]	@ 0x24
 8002f96:	623a      	str	r2, [r7, #32]
 8002f98:	61fb      	str	r3, [r7, #28]
 8002f9a:	69f9      	ldr	r1, [r7, #28]
 8002f9c:	6a3a      	ldr	r2, [r7, #32]
 8002f9e:	e841 2300 	strex	r3, r2, [r1]
 8002fa2:	61bb      	str	r3, [r7, #24]
 8002fa4:	69bb      	ldr	r3, [r7, #24]
 8002fa6:	2b00      	cmp	r3, #0
 8002fa8:	d1e5      	bne.n	8002f76 <UART_Receive_IT+0xfe>
 8002faa:	687b      	ldr	r3, [r7, #4]
 8002fac:	681b      	ldr	r3, [r3, #0]
 8002fae:	681b      	ldr	r3, [r3, #0]
 8002fb0:	f003 0310 	and.w	r3, r3, #16
 8002fb4:	2b10      	cmp	r3, #16
 8002fb6:	d10a      	bne.n	8002fce <UART_Receive_IT+0x156>
 8002fb8:	2300      	movs	r3, #0
 8002fba:	60fb      	str	r3, [r7, #12]
 8002fbc:	687b      	ldr	r3, [r7, #4]
 8002fbe:	681b      	ldr	r3, [r3, #0]
 8002fc0:	681b      	ldr	r3, [r3, #0]
 8002fc2:	60fb      	str	r3, [r7, #12]
 8002fc4:	687b      	ldr	r3, [r7, #4]
 8002fc6:	681b      	ldr	r3, [r3, #0]
 8002fc8:	685b      	ldr	r3, [r3, #4]
 8002fca:	60fb      	str	r3, [r7, #12]
 8002fcc:	68fb      	ldr	r3, [r7, #12]
 8002fce:	687b      	ldr	r3, [r7, #4]
 8002fd0:	8d9b      	ldrh	r3, [r3, #44]	@ 0x2c
 8002fd2:	4619      	mov	r1, r3
 8002fd4:	6878      	ldr	r0, [r7, #4]
 8002fd6:	f7fd fbc7 	bl	8000768 <HAL_UARTEx_RxEventCallback>
 8002fda:	e002      	b.n	8002fe2 <UART_Receive_IT+0x16a>
 8002fdc:	6878      	ldr	r0, [r7, #4]
 8002fde:	f7ff fc85 	bl	80028ec <HAL_UART_RxCpltCallback>
 8002fe2:	2300      	movs	r3, #0
 8002fe4:	e002      	b.n	8002fec <UART_Receive_IT+0x174>
 8002fe6:	2300      	movs	r3, #0
 8002fe8:	e000      	b.n	8002fec <UART_Receive_IT+0x174>
 8002fea:	2302      	movs	r3, #2
 8002fec:	4618      	mov	r0, r3
 8002fee:	3730      	adds	r7, #48	@ 0x30
 8002ff0:	46bd      	mov	sp, r7
 8002ff2:	bd80      	pop	{r7, pc}

08002ff4 <UART_SetConfig>:
 8002ff4:	e92d 4fb0 	stmdb	sp!, {r4, r5, r7, r8, r9, sl, fp, lr}
 8002ff8:	b0c0      	sub	sp, #256	@ 0x100
 8002ffa:	af00      	add	r7, sp, #0
 8002ffc:	f8c7 00f4 	str.w	r0, [r7, #244]	@ 0xf4
 8003000:	f8d7 30f4 	ldr.w	r3, [r7, #244]	@ 0xf4
 8003004:	681b      	ldr	r3, [r3, #0]
 8003006:	691b      	ldr	r3, [r3, #16]
 8003008:	f423 5040 	bic.w	r0, r3, #12288	@ 0x3000
 800300c:	f8d7 30f4 	ldr.w	r3, [r7, #244]	@ 0xf4
 8003010:	68d9      	ldr	r1, [r3, #12]
 8003012:	f8d7 30f4 	ldr.w	r3, [r7, #244]	@ 0xf4
 8003016:	681a      	ldr	r2, [r3, #0]
 8003018:	ea40 0301 	orr.w	r3, r0, r1
 800301c:	6113      	str	r3, [r2, #16]
 800301e:	f8d7 30f4 	ldr.w	r3, [r7, #244]	@ 0xf4
 8003022:	689a      	ldr	r2, [r3, #8]
 8003024:	f8d7 30f4 	ldr.w	r3, [r7, #244]	@ 0xf4
 8003028:	691b      	ldr	r3, [r3, #16]
 800302a:	431a      	orrs	r2, r3
 800302c:	f8d7 30f4 	ldr.w	r3, [r7, #244]	@ 0xf4
 8003030:	695b      	ldr	r3, [r3, #20]
 8003032:	431a      	orrs	r2, r3
 8003034:	f8d7 30f4 	ldr.w	r3, [r7, #244]	@ 0xf4
 8003038:	69db      	ldr	r3, [r3, #28]
 800303a:	4313      	orrs	r3, r2
 800303c:	f8c7 30f8 	str.w	r3, [r7, #248]	@ 0xf8
 8003040:	f8d7 30f4 	ldr.w	r3, [r7, #244]	@ 0xf4
 8003044:	681b      	ldr	r3, [r3, #0]
 8003046:	68db      	ldr	r3, [r3, #12]
 8003048:	f423 4116 	bic.w	r1, r3, #38400	@ 0x9600
 800304c:	f021 010c 	bic.w	r1, r1, #12
 8003050:	f8d7 30f4 	ldr.w	r3, [r7, #244]	@ 0xf4
 8003054:	681a      	ldr	r2, [r3, #0]
 8003056:	f8d7 30f8 	ldr.w	r3, [r7, #248]	@ 0xf8
 800305a:	430b      	orrs	r3, r1
 800305c:	60d3      	str	r3, [r2, #12]
 800305e:	f8d7 30f4 	ldr.w	r3, [r7, #244]	@ 0xf4
 8003062:	681b      	ldr	r3, [r3, #0]
 8003064:	695b      	ldr	r3, [r3, #20]
 8003066:	f423 7040 	bic.w	r0, r3, #768	@ 0x300
 800306a:	f8d7 30f4 	ldr.w	r3, [r7, #244]	@ 0xf4
 800306e:	6999      	ldr	r1, [r3, #24]
 8003070:	f8d7 30f4 	ldr.w	r3, [r7, #244]	@ 0xf4
 8003074:	681a      	ldr	r2, [r3, #0]
 8003076:	ea40 0301 	orr.w	r3, r0, r1
 800307a:	6153      	str	r3, [r2, #20]
 800307c:	f8d7 30f4 	ldr.w	r3, [r7, #244]	@ 0xf4
 8003080:	681a      	ldr	r2, [r3, #0]
 8003082:	4b8f      	ldr	r3, [pc, #572]	@ (80032c0 <UART_SetConfig+0x2cc>)
 8003084:	429a      	cmp	r2, r3
 8003086:	d005      	beq.n	8003094 <UART_SetConfig+0xa0>
 8003088:	f8d7 30f4 	ldr.w	r3, [r7, #244]	@ 0xf4
 800308c:	681a      	ldr	r2, [r3, #0]
 800308e:	4b8d      	ldr	r3, [pc, #564]	@ (80032c4 <UART_SetConfig+0x2d0>)
 8003090:	429a      	cmp	r2, r3
 8003092:	d104      	bne.n	800309e <UART_SetConfig+0xaa>
 8003094:	f7ff f8b8 	bl	8002208 <HAL_RCC_GetPCLK2Freq>
 8003098:	f8c7 00fc 	str.w	r0, [r7, #252]	@ 0xfc
 800309c:	e003      	b.n	80030a6 <UART_SetConfig+0xb2>
 800309e:	f7ff f89f 	bl	80021e0 <HAL_RCC_GetPCLK1Freq>
 80030a2:	f8c7 00fc 	str.w	r0, [r7, #252]	@ 0xfc
 80030a6:	f8d7 30f4 	ldr.w	r3, [r7, #244]	@ 0xf4
 80030aa:	69db      	ldr	r3, [r3, #28]
 80030ac:	f5b3 4f00 	cmp.w	r3, #32768	@ 0x8000
 80030b0:	f040 810c 	bne.w	80032cc <UART_SetConfig+0x2d8>
 80030b4:	f8d7 30fc 	ldr.w	r3, [r7, #252]	@ 0xfc
 80030b8:	2200      	movs	r2, #0
 80030ba:	f8c7 30e8 	str.w	r3, [r7, #232]	@ 0xe8
 80030be:	f8c7 20ec 	str.w	r2, [r7, #236]	@ 0xec
 80030c2:	e9d7 453a 	ldrd	r4, r5, [r7, #232]	@ 0xe8
 80030c6:	4622      	mov	r2, r4
 80030c8:	462b      	mov	r3, r5
 80030ca:	1891      	adds	r1, r2, r2
 80030cc:	65b9      	str	r1, [r7, #88]	@ 0x58
 80030ce:	415b      	adcs	r3, r3
 80030d0:	65fb      	str	r3, [r7, #92]	@ 0x5c
 80030d2:	e9d7 2316 	ldrd	r2, r3, [r7, #88]	@ 0x58
 80030d6:	4621      	mov	r1, r4
 80030d8:	eb12 0801 	adds.w	r8, r2, r1
 80030dc:	4629      	mov	r1, r5
 80030de:	eb43 0901 	adc.w	r9, r3, r1
 80030e2:	f04f 0200 	mov.w	r2, #0
 80030e6:	f04f 0300 	mov.w	r3, #0
 80030ea:	ea4f 03c9 	mov.w	r3, r9, lsl #3
 80030ee:	ea43 7358 	orr.w	r3, r3, r8, lsr #29
 80030f2:	ea4f 02c8 	mov.w	r2, r8, lsl #3
 80030f6:	4690      	mov	r8, r2
 80030f8:	4699      	mov	r9, r3
 80030fa:	4623      	mov	r3, r4
 80030fc:	eb18 0303 	adds.w	r3, r8, r3
 8003100:	f8c7 30e0 	str.w	r3, [r7, #224]	@ 0xe0
 8003104:	462b      	mov	r3, r5
 8003106:	eb49 0303 	adc.w	r3, r9, r3
 800310a:	f8c7 30e4 	str.w	r3, [r7, #228]	@ 0xe4
 800310e:	f8d7 30f4 	ldr.w	r3, [r7, #244]	@ 0xf4
 8003112:	685b      	ldr	r3, [r3, #4]
 8003114:	2200      	movs	r2, #0
 8003116:	f8c7 30d8 	str.w	r3, [r7, #216]	@ 0xd8
 800311a:	f8c7 20dc 	str.w	r2, [r7, #220]	@ 0xdc
 800311e:	e9d7 1236 	ldrd	r1, r2, [r7, #216]	@ 0xd8
 8003122:	460b      	mov	r3, r1
 8003124:	18db      	adds	r3, r3, r3
 8003126:	653b      	str	r3, [r7, #80]	@ 0x50
 8003128:	4613      	mov	r3, r2
 800312a:	eb42 0303 	adc.w	r3, r2, r3
 800312e:	657b      	str	r3, [r7, #84]	@ 0x54
 8003130:	e9d7 2314 	ldrd	r2, r3, [r7, #80]	@ 0x50
 8003134:	e9d7 0138 	ldrd	r0, r1, [r7, #224]	@ 0xe0
 8003138:	f7fd f846 	bl	80001c8 <__aeabi_uldivmod>
 800313c:	4602      	mov	r2, r0
 800313e:	460b      	mov	r3, r1
 8003140:	4b61      	ldr	r3, [pc, #388]	@ (80032c8 <UART_SetConfig+0x2d4>)
 8003142:	fba3 2302 	umull	r2, r3, r3, r2
 8003146:	095b      	lsrs	r3, r3, #5
 8003148:	011c      	lsls	r4, r3, #4
 800314a:	f8d7 30fc 	ldr.w	r3, [r7, #252]	@ 0xfc
 800314e:	2200      	movs	r2, #0
 8003150:	f8c7 30d0 	str.w	r3, [r7, #208]	@ 0xd0
 8003154:	f8c7 20d4 	str.w	r2, [r7, #212]	@ 0xd4
 8003158:	e9d7 8934 	ldrd	r8, r9, [r7, #208]	@ 0xd0
 800315c:	4642      	mov	r2, r8
 800315e:	464b      	mov	r3, r9
 8003160:	1891      	adds	r1, r2, r2
 8003162:	64b9      	str	r1, [r7, #72]	@ 0x48
 8003164:	415b      	adcs	r3, r3
 8003166:	64fb      	str	r3, [r7, #76]	@ 0x4c
 8003168:	e9d7 2312 	ldrd	r2, r3, [r7, #72]	@ 0x48
 800316c:	4641      	mov	r1, r8
 800316e:	eb12 0a01 	adds.w	sl, r2, r1
 8003172:	4649      	mov	r1, r9
 8003174:	eb43 0b01 	adc.w	fp, r3, r1
 8003178:	f04f 0200 	mov.w	r2, #0
 800317c:	f04f 0300 	mov.w	r3, #0
 8003180:	ea4f 03cb 	mov.w	r3, fp, lsl #3
 8003184:	ea43 735a 	orr.w	r3, r3, sl, lsr #29
 8003188:	ea4f 02ca 	mov.w	r2, sl, lsl #3
 800318c:	4692      	mov	sl, r2
 800318e:	469b      	mov	fp, r3
 8003190:	4643      	mov	r3, r8
 8003192:	eb1a 0303 	adds.w	r3, sl, r3
 8003196:	f8c7 30c8 	str.w	r3, [r7, #200]	@ 0xc8
 800319a:	464b      	mov	r3, r9
 800319c:	eb4b 0303 	adc.w	r3, fp, r3
 80031a0:	f8c7 30cc 	str.w	r3, [r7, #204]	@ 0xcc
 80031a4:	f8d7 30f4 	ldr.w	r3, [r7, #244]	@ 0xf4
 80031a8:	685b      	ldr	r3, [r3, #4]
 80031aa:	2200      	movs	r2, #0
 80031ac:	f8c7 30c0 	str.w	r3, [r7, #192]	@ 0xc0
 80031b0:	f8c7 20c4 	str.w	r2, [r7, #196]	@ 0xc4
 80031b4:	e9d7 1230 	ldrd	r1, r2, [r7, #192]	@ 0xc0
 80031b8:	460b      	mov	r3, r1
 80031ba:	18db      	adds	r3, r3, r3
 80031bc:	643b      	str	r3, [r7, #64]	@ 0x40
 80031be:	4613      	mov	r3, r2
 80031c0:	eb42 0303 	adc.w	r3, r2, r3
 80031c4:	647b      	str	r3, [r7, #68]	@ 0x44
 80031c6:	e9d7 2310 	ldrd	r2, r3, [r7, #64]	@ 0x40
 80031ca:	e9d7 0132 	ldrd	r0, r1, [r7, #200]	@ 0xc8
 80031ce:	f7fc fffb 	bl	80001c8 <__aeabi_uldivmod>
 80031d2:	4602      	mov	r2, r0
 80031d4:	460b      	mov	r3, r1
 80031d6:	4611      	mov	r1, r2
 80031d8:	4b3b      	ldr	r3, [pc, #236]	@ (80032c8 <UART_SetConfig+0x2d4>)
 80031da:	fba3 2301 	umull	r2, r3, r3, r1
 80031de:	095b      	lsrs	r3, r3, #5
 80031e0:	2264      	movs	r2, #100	@ 0x64
 80031e2:	fb02 f303 	mul.w	r3, r2, r3
 80031e6:	1acb      	subs	r3, r1, r3
 80031e8:	00db      	lsls	r3, r3, #3
 80031ea:	f103 0232 	add.w	r2, r3, #50	@ 0x32
 80031ee:	4b36      	ldr	r3, [pc, #216]	@ (80032c8 <UART_SetConfig+0x2d4>)
 80031f0:	fba3 2302 	umull	r2, r3, r3, r2
 80031f4:	095b      	lsrs	r3, r3, #5
 80031f6:	005b      	lsls	r3, r3, #1
 80031f8:	f403 73f8 	and.w	r3, r3, #496	@ 0x1f0
 80031fc:	441c      	add	r4, r3
 80031fe:	f8d7 30fc 	ldr.w	r3, [r7, #252]	@ 0xfc
 8003202:	2200      	movs	r2, #0
 8003204:	f8c7 30b8 	str.w	r3, [r7, #184]	@ 0xb8
 8003208:	f8c7 20bc 	str.w	r2, [r7, #188]	@ 0xbc
 800320c:	e9d7 892e 	ldrd	r8, r9, [r7, #184]	@ 0xb8
 8003210:	4642      	mov	r2, r8
 8003212:	464b      	mov	r3, r9
 8003214:	1891      	adds	r1, r2, r2
 8003216:	63b9      	str	r1, [r7, #56]	@ 0x38
 8003218:	415b      	adcs	r3, r3
 800321a:	63fb      	str	r3, [r7, #60]	@ 0x3c
 800321c:	e9d7 230e 	ldrd	r2, r3, [r7, #56]	@ 0x38
 8003220:	4641      	mov	r1, r8
 8003222:	1851      	adds	r1, r2, r1
 8003224:	6339      	str	r1, [r7, #48]	@ 0x30
 8003226:	4649      	mov	r1, r9
 8003228:	414b      	adcs	r3, r1
 800322a:	637b      	str	r3, [r7, #52]	@ 0x34
 800322c:	f04f 0200 	mov.w	r2, #0
 8003230:	f04f 0300 	mov.w	r3, #0
 8003234:	e9d7 ab0c 	ldrd	sl, fp, [r7, #48]	@ 0x30
 8003238:	4659      	mov	r1, fp
 800323a:	00cb      	lsls	r3, r1, #3
 800323c:	4651      	mov	r1, sl
 800323e:	ea43 7351 	orr.w	r3, r3, r1, lsr #29
 8003242:	4651      	mov	r1, sl
 8003244:	00ca      	lsls	r2, r1, #3
 8003246:	4610      	mov	r0, r2
 8003248:	4619      	mov	r1, r3
 800324a:	4603      	mov	r3, r0
 800324c:	4642      	mov	r2, r8
 800324e:	189b      	adds	r3, r3, r2
 8003250:	f8c7 30b0 	str.w	r3, [r7, #176]	@ 0xb0
 8003254:	464b      	mov	r3, r9
 8003256:	460a      	mov	r2, r1
 8003258:	eb42 0303 	adc.w	r3, r2, r3
 800325c:	f8c7 30b4 	str.w	r3, [r7, #180]	@ 0xb4
 8003260:	f8d7 30f4 	ldr.w	r3, [r7, #244]	@ 0xf4
 8003264:	685b      	ldr	r3, [r3, #4]
 8003266:	2200      	movs	r2, #0
 8003268:	f8c7 30a8 	str.w	r3, [r7, #168]	@ 0xa8
 800326c:	f8c7 20ac 	str.w	r2, [r7, #172]	@ 0xac
 8003270:	e9d7 122a 	ldrd	r1, r2, [r7, #168]	@ 0xa8
 8003274:	460b      	mov	r3, r1
 8003276:	18db      	adds	r3, r3, r3
 8003278:	62bb      	str	r3, [r7, #40]	@ 0x28
 800327a:	4613      	mov	r3, r2
 800327c:	eb42 0303 	adc.w	r3, r2, r3
 8003280:	62fb      	str	r3, [r7, #44]	@ 0x2c
 8003282:	e9d7 230a 	ldrd	r2, r3, [r7, #40]	@ 0x28
 8003286:	e9d7 012c 	ldrd	r0, r1, [r7, #176]	@ 0xb0
 800328a:	f7fc ff9d 	bl	80001c8 <__aeabi_uldivmod>
 800328e:	4602      	mov	r2, r0
 8003290:	460b      	mov	r3, r1
 8003292:	4b0d      	ldr	r3, [pc, #52]	@ (80032c8 <UART_SetConfig+0x2d4>)
 8003294:	fba3 1302 	umull	r1, r3, r3, r2
 8003298:	095b      	lsrs	r3, r3, #5
 800329a:	2164      	movs	r1, #100	@ 0x64
 800329c:	fb01 f303 	mul.w	r3, r1, r3
 80032a0:	1ad3      	subs	r3, r2, r3
 80032a2:	00db      	lsls	r3, r3, #3
 80032a4:	3332      	adds	r3, #50	@ 0x32
 80032a6:	4a08      	ldr	r2, [pc, #32]	@ (80032c8 <UART_SetConfig+0x2d4>)
 80032a8:	fba2 2303 	umull	r2, r3, r2, r3
 80032ac:	095b      	lsrs	r3, r3, #5
 80032ae:	f003 0207 	and.w	r2, r3, #7
 80032b2:	f8d7 30f4 	ldr.w	r3, [r7, #244]	@ 0xf4
 80032b6:	681b      	ldr	r3, [r3, #0]
 80032b8:	4422      	add	r2, r4
 80032ba:	609a      	str	r2, [r3, #8]
 80032bc:	e106      	b.n	80034cc <UART_SetConfig+0x4d8>
 80032be:	bf00      	nop
 80032c0:	40011000 	.word	0x40011000
 80032c4:	40011400 	.word	0x40011400
 80032c8:	51eb851f 	.word	0x51eb851f
 80032cc:	f8d7 30fc 	ldr.w	r3, [r7, #252]	@ 0xfc
 80032d0:	2200      	movs	r2, #0
 80032d2:	f8c7 30a0 	str.w	r3, [r7, #160]	@ 0xa0
 80032d6:	f8c7 20a4 	str.w	r2, [r7, #164]	@ 0xa4
 80032da:	e9d7 8928 	ldrd	r8, r9, [r7, #160]	@ 0xa0
 80032de:	4642      	mov	r2, r8
 80032e0:	464b      	mov	r3, r9
 80032e2:	1891      	adds	r1, r2, r2
 80032e4:	6239      	str	r1, [r7, #32]
 80032e6:	415b      	adcs	r3, r3
 80032e8:	627b      	str	r3, [r7, #36]	@ 0x24
 80032ea:	e9d7 2308 	ldrd	r2, r3, [r7, #32]
 80032ee:	4641      	mov	r1, r8
 80032f0:	1854      	adds	r4, r2, r1
 80032f2:	4649      	mov	r1, r9
 80032f4:	eb43 0501 	adc.w	r5, r3, r1
 80032f8:	f04f 0200 	mov.w	r2, #0
 80032fc:	f04f 0300 	mov.w	r3, #0
 8003300:	00eb      	lsls	r3, r5, #3
 8003302:	ea43 7354 	orr.w	r3, r3, r4, lsr #29
 8003306:	00e2      	lsls	r2, r4, #3
 8003308:	4614      	mov	r4, r2
 800330a:	461d      	mov	r5, r3
 800330c:	4643      	mov	r3, r8
 800330e:	18e3      	adds	r3, r4, r3
 8003310:	f8c7 3098 	str.w	r3, [r7, #152]	@ 0x98
 8003314:	464b      	mov	r3, r9
 8003316:	eb45 0303 	adc.w	r3, r5, r3
 800331a:	f8c7 309c 	str.w	r3, [r7, #156]	@ 0x9c
 800331e:	f8d7 30f4 	ldr.w	r3, [r7, #244]	@ 0xf4
 8003322:	685b      	ldr	r3, [r3, #4]
 8003324:	2200      	movs	r2, #0
 8003326:	f8c7 3090 	str.w	r3, [r7, #144]	@ 0x90
 800332a:	f8c7 2094 	str.w	r2, [r7, #148]	@ 0x94
 800332e:	f04f 0200 	mov.w	r2, #0
 8003332:	f04f 0300 	mov.w	r3, #0
 8003336:	e9d7 4524 	ldrd	r4, r5, [r7, #144]	@ 0x90
 800333a:	4629      	mov	r1, r5
 800333c:	008b      	lsls	r3, r1, #2
 800333e:	4621      	mov	r1, r4
 8003340:	ea43 7391 	orr.w	r3, r3, r1, lsr #30
 8003344:	4621      	mov	r1, r4
 8003346:	008a      	lsls	r2, r1, #2
 8003348:	e9d7 0126 	ldrd	r0, r1, [r7, #152]	@ 0x98
 800334c:	f7fc ff3c 	bl	80001c8 <__aeabi_uldivmod>
 8003350:	4602      	mov	r2, r0
 8003352:	460b      	mov	r3, r1
 8003354:	4b60      	ldr	r3, [pc, #384]	@ (80034d8 <UART_SetConfig+0x4e4>)
 8003356:	fba3 2302 	umull	r2, r3, r3, r2
 800335a:	095b      	lsrs	r3, r3, #5
 800335c:	011c      	lsls	r4, r3, #4
 800335e:	f8d7 30fc 	ldr.w	r3, [r7, #252]	@ 0xfc
 8003362:	2200      	movs	r2, #0
 8003364:	f8c7 3088 	str.w	r3, [r7, #136]	@ 0x88
 8003368:	f8c7 208c 	str.w	r2, [r7, #140]	@ 0x8c
 800336c:	e9d7 8922 	ldrd	r8, r9, [r7, #136]	@ 0x88
 8003370:	4642      	mov	r2, r8
 8003372:	464b      	mov	r3, r9
 8003374:	1891      	adds	r1, r2, r2
 8003376:	61b9      	str	r1, [r7, #24]
 8003378:	415b      	adcs	r3, r3
 800337a:	61fb      	str	r3, [r7, #28]
 800337c:	e9d7 2306 	ldrd	r2, r3, [r7, #24]
 8003380:	4641      	mov	r1, r8
 8003382:	1851      	adds	r1, r2, r1
 8003384:	6139      	str	r1, [r7, #16]
 8003386:	4649      	mov	r1, r9
 8003388:	414b      	adcs	r3, r1
 800338a:	617b      	str	r3, [r7, #20]
 800338c:	f04f 0200 	mov.w	r2, #0
 8003390:	f04f 0300 	mov.w	r3, #0
 8003394:	e9d7 ab04 	ldrd	sl, fp, [r7, #16]
 8003398:	4659      	mov	r1, fp
 800339a:	00cb      	lsls	r3, r1, #3
 800339c:	4651      	mov	r1, sl
 800339e:	ea43 7351 	orr.w	r3, r3, r1, lsr #29
 80033a2:	4651      	mov	r1, sl
 80033a4:	00ca      	lsls	r2, r1, #3
 80033a6:	4610      	mov	r0, r2
 80033a8:	4619      	mov	r1, r3
 80033aa:	4603      	mov	r3, r0
 80033ac:	4642      	mov	r2, r8
 80033ae:	189b      	adds	r3, r3, r2
 80033b0:	f8c7 3080 	str.w	r3, [r7, #128]	@ 0x80
 80033b4:	464b      	mov	r3, r9
 80033b6:	460a      	mov	r2, r1
 80033b8:	eb42 0303 	adc.w	r3, r2, r3
 80033bc:	f8c7 3084 	str.w	r3, [r7, #132]	@ 0x84
 80033c0:	f8d7 30f4 	ldr.w	r3, [r7, #244]	@ 0xf4
 80033c4:	685b      	ldr	r3, [r3, #4]
 80033c6:	2200      	movs	r2, #0
 80033c8:	67bb      	str	r3, [r7, #120]	@ 0x78
 80033ca:	67fa      	str	r2, [r7, #124]	@ 0x7c
 80033cc:	f04f 0200 	mov.w	r2, #0
 80033d0:	f04f 0300 	mov.w	r3, #0
 80033d4:	e9d7 891e 	ldrd	r8, r9, [r7, #120]	@ 0x78
 80033d8:	4649      	mov	r1, r9
 80033da:	008b      	lsls	r3, r1, #2
 80033dc:	4641      	mov	r1, r8
 80033de:	ea43 7391 	orr.w	r3, r3, r1, lsr #30
 80033e2:	4641      	mov	r1, r8
 80033e4:	008a      	lsls	r2, r1, #2
 80033e6:	e9d7 0120 	ldrd	r0, r1, [r7, #128]	@ 0x80
 80033ea:	f7fc feed 	bl	80001c8 <__aeabi_uldivmod>
 80033ee:	4602      	mov	r2, r0
 80033f0:	460b      	mov	r3, r1
 80033f2:	4611      	mov	r1, r2
 80033f4:	4b38      	ldr	r3, [pc, #224]	@ (80034d8 <UART_SetConfig+0x4e4>)
 80033f6:	fba3 2301 	umull	r2, r3, r3, r1
 80033fa:	095b      	lsrs	r3, r3, #5
 80033fc:	2264      	movs	r2, #100	@ 0x64
 80033fe:	fb02 f303 	mul.w	r3, r2, r3
 8003402:	1acb      	subs	r3, r1, r3
 8003404:	011b      	lsls	r3, r3, #4
 8003406:	3332      	adds	r3, #50	@ 0x32
 8003408:	4a33      	ldr	r2, [pc, #204]	@ (80034d8 <UART_SetConfig+0x4e4>)
 800340a:	fba2 2303 	umull	r2, r3, r2, r3
 800340e:	095b      	lsrs	r3, r3, #5
 8003410:	f003 03f0 	and.w	r3, r3, #240	@ 0xf0
 8003414:	441c      	add	r4, r3
 8003416:	f8d7 30fc 	ldr.w	r3, [r7, #252]	@ 0xfc
 800341a:	2200      	movs	r2, #0
 800341c:	673b      	str	r3, [r7, #112]	@ 0x70
 800341e:	677a      	str	r2, [r7, #116]	@ 0x74
 8003420:	e9d7 891c 	ldrd	r8, r9, [r7, #112]	@ 0x70
 8003424:	4642      	mov	r2, r8
 8003426:	464b      	mov	r3, r9
 8003428:	1891      	adds	r1, r2, r2
 800342a:	60b9      	str	r1, [r7, #8]
 800342c:	415b      	adcs	r3, r3
 800342e:	60fb      	str	r3, [r7, #12]
 8003430:	e9d7 2302 	ldrd	r2, r3, [r7, #8]
 8003434:	4641      	mov	r1, r8
 8003436:	1851      	adds	r1, r2, r1
 8003438:	6039      	str	r1, [r7, #0]
 800343a:	4649      	mov	r1, r9
 800343c:	414b      	adcs	r3, r1
 800343e:	607b      	str	r3, [r7, #4]
 8003440:	f04f 0200 	mov.w	r2, #0
 8003444:	f04f 0300 	mov.w	r3, #0
 8003448:	e9d7 ab00 	ldrd	sl, fp, [r7]
 800344c:	4659      	mov	r1, fp
 800344e:	00cb      	lsls	r3, r1, #3
 8003450:	4651      	mov	r1, sl
 8003452:	ea43 7351 	orr.w	r3, r3, r1, lsr #29
 8003456:	4651      	mov	r1, sl
 8003458:	00ca      	lsls	r2, r1, #3
 800345a:	4610      	mov	r0, r2
 800345c:	4619      	mov	r1, r3
 800345e:	4603      	mov	r3, r0
 8003460:	4642      	mov	r2, r8
 8003462:	189b      	adds	r3, r3, r2
 8003464:	66bb      	str	r3, [r7, #104]	@ 0x68
 8003466:	464b      	mov	r3, r9
 8003468:	460a      	mov	r2, r1
 800346a:	eb42 0303 	adc.w	r3, r2, r3
 800346e:	66fb      	str	r3, [r7, #108]	@ 0x6c
 8003470:	f8d7 30f4 	ldr.w	r3, [r7, #244]	@ 0xf4
 8003474:	685b      	ldr	r3, [r3, #4]
 8003476:	2200      	movs	r2, #0
 8003478:	663b      	str	r3, [r7, #96]	@ 0x60
 800347a:	667a      	str	r2, [r7, #100]	@ 0x64
 800347c:	f04f 0200 	mov.w	r2, #0
 8003480:	f04f 0300 	mov.w	r3, #0
 8003484:	e9d7 8918 	ldrd	r8, r9, [r7, #96]	@ 0x60
 8003488:	4649      	mov	r1, r9
 800348a:	008b      	lsls	r3, r1, #2
 800348c:	4641      	mov	r1, r8
 800348e:	ea43 7391 	orr.w	r3, r3, r1, lsr #30
 8003492:	4641      	mov	r1, r8
 8003494:	008a      	lsls	r2, r1, #2
 8003496:	e9d7 011a 	ldrd	r0, r1, [r7, #104]	@ 0x68
 800349a:	f7fc fe95 	bl	80001c8 <__aeabi_uldivmod>
 800349e:	4602      	mov	r2, r0
 80034a0:	460b      	mov	r3, r1
 80034a2:	4b0d      	ldr	r3, [pc, #52]	@ (80034d8 <UART_SetConfig+0x4e4>)
 80034a4:	fba3 1302 	umull	r1, r3, r3, r2
 80034a8:	095b      	lsrs	r3, r3, #5
 80034aa:	2164      	movs	r1, #100	@ 0x64
 80034ac:	fb01 f303 	mul.w	r3, r1, r3
 80034b0:	1ad3      	subs	r3, r2, r3
 80034b2:	011b      	lsls	r3, r3, #4
 80034b4:	3332      	adds	r3, #50	@ 0x32
 80034b6:	4a08      	ldr	r2, [pc, #32]	@ (80034d8 <UART_SetConfig+0x4e4>)
 80034b8:	fba2 2303 	umull	r2, r3, r2, r3
 80034bc:	095b      	lsrs	r3, r3, #5
 80034be:	f003 020f 	and.w	r2, r3, #15
 80034c2:	f8d7 30f4 	ldr.w	r3, [r7, #244]	@ 0xf4
 80034c6:	681b      	ldr	r3, [r3, #0]
 80034c8:	4422      	add	r2, r4
 80034ca:	609a      	str	r2, [r3, #8]
 80034cc:	bf00      	nop
 80034ce:	f507 7780 	add.w	r7, r7, #256	@ 0x100
 80034d2:	46bd      	mov	sp, r7
 80034d4:	e8bd 8fb0 	ldmia.w	sp!, {r4, r5, r7, r8, r9, sl, fp, pc}
 80034d8:	51eb851f 	.word	0x51eb851f

080034dc <memset>:
 80034dc:	4402      	add	r2, r0
 80034de:	4603      	mov	r3, r0
 80034e0:	4293      	cmp	r3, r2
 80034e2:	d100      	bne.n	80034e6 <memset+0xa>
 80034e4:	4770      	bx	lr
 80034e6:	f803 1b01 	strb.w	r1, [r3], #1
 80034ea:	e7f9      	b.n	80034e0 <memset+0x4>

080034ec <__libc_init_array>:
 80034ec:	b570      	push	{r4, r5, r6, lr}
 80034ee:	4d0d      	ldr	r5, [pc, #52]	@ (8003524 <__libc_init_array+0x38>)
 80034f0:	4c0d      	ldr	r4, [pc, #52]	@ (8003528 <__libc_init_array+0x3c>)
 80034f2:	1b64      	subs	r4, r4, r5
 80034f4:	10a4      	asrs	r4, r4, #2
 80034f6:	2600      	movs	r6, #0
 80034f8:	42a6      	cmp	r6, r4
 80034fa:	d109      	bne.n	8003510 <__libc_init_array+0x24>
 80034fc:	4d0b      	ldr	r5, [pc, #44]	@ (800352c <__libc_init_array+0x40>)
 80034fe:	4c0c      	ldr	r4, [pc, #48]	@ (8003530 <__libc_init_array+0x44>)
 8003500:	f000 f818 	bl	8003534 <_init>
 8003504:	1b64      	subs	r4, r4, r5
 8003506:	10a4      	asrs	r4, r4, #2
 8003508:	2600      	movs	r6, #0
 800350a:	42a6      	cmp	r6, r4
 800350c:	d105      	bne.n	800351a <__libc_init_array+0x2e>
 800350e:	bd70      	pop	{r4, r5, r6, pc}
 8003510:	f855 3b04 	ldr.w	r3, [r5], #4
 8003514:	4798      	blx	r3
 8003516:	3601      	adds	r6, #1
 8003518:	e7ee      	b.n	80034f8 <__libc_init_array+0xc>
 800351a:	f855 3b04 	ldr.w	r3, [r5], #4
 800351e:	4798      	blx	r3
 8003520:	3601      	adds	r6, #1
 8003522:	e7f2      	b.n	800350a <__libc_init_array+0x1e>
 8003524:	08003574 	.word	0x08003574
 8003528:	08003574 	.word	0x08003574
 800352c:	08003574 	.word	0x08003574
 8003530:	08003578 	.word	0x08003578

08003534 <_init>:
 8003534:	b5f8      	push	{r3, r4, r5, r6, r7, lr}
 8003536:	bf00      	nop
 8003538:	bcf8      	pop	{r3, r4, r5, r6, r7}
 800353a:	bc08      	pop	{r3}
 800353c:	469e      	mov	lr, r3
 800353e:	4770      	bx	lr

08003540 <_fini>:
 8003540:	b5f8      	push	{r3, r4, r5, r6, r7, lr}
 8003542:	bf00      	nop
 8003544:	bcf8      	pop	{r3, r4, r5, r6, r7}
 8003546:	bc08      	pop	{r3}
 8003548:	469e      	mov	lr, r3
 800354a:	4770      	bx	lr
